SF:D:\a\EntropIA\EntropIA\apps\desktop\src-tauri\src\db\commands.rs
FN:18,_RNCNvNtNtCs84fopnVJSSS_20entropia_desktop_lib2db8commands10db_execute0B7_
FN:23,_RNCNvNtNtCs84fopnVJSSS_20entropia_desktop_lib2db8commands10db_executes0_0B7_
FN:20,_RNCNvNtNtCs84fopnVJSSS_20entropia_desktop_lib2db8commands10db_executes_0B7_
FN:35,_RNCNvNtNtCs84fopnVJSSS_20entropia_desktop_lib2db8commands9db_select0B7_
FN:38,_RNCNvNtNtCs84fopnVJSSS_20entropia_desktop_lib2db8commands9db_selects0_0B7_
FN:41,_RNCNvNtNtCs84fopnVJSSS_20entropia_desktop_lib2db8commands9db_selects1_0B7_
FN:45,_RNCNvNtNtCs84fopnVJSSS_20entropia_desktop_lib2db8commands9db_selects2_0B7_
FN:53,_RNCNvNtNtCs84fopnVJSSS_20entropia_desktop_lib2db8commands9db_selects3_0B7_
FN:55,_RNCNvNtNtCs84fopnVJSSS_20entropia_desktop_lib2db8commands9db_selects4_0B7_
FN:37,_RNCNvNtNtCs84fopnVJSSS_20entropia_desktop_lib2db8commands9db_selects_0B7_
FN:13,_RNvNtNtCs84fopnVJSSS_20entropia_desktop_lib2db8commands10db_execute
FN:88,_RNvNtNtCs84fopnVJSSS_20entropia_desktop_lib2db8commands13base64_encode
FN:60,_RNvNtNtCs84fopnVJSSS_20entropia_desktop_lib2db8commands17json_to_sql_param
FN:78,_RNvNtNtCs84fopnVJSSS_20entropia_desktop_lib2db8commands22rusqlite_value_to_json
FN:30,_RNvNtNtCs84fopnVJSSS_20entropia_desktop_lib2db8commands9db_select
FN:18,_RNCNvNtNtCs33ezxKbzRES_20entropia_desktop_lib2db8commands10db_execute0B7_
FN:23,_RNCNvNtNtCs33ezxKbzRES_20entropia_desktop_lib2db8commands10db_executes0_0B7_
FN:20,_RNCNvNtNtCs33ezxKbzRES_20entropia_desktop_lib2db8commands10db_executes_0B7_
FN:35,_RNCNvNtNtCs33ezxKbzRES_20entropia_desktop_lib2db8commands9db_select0B7_
FN:38,_RNCNvNtNtCs33ezxKbzRES_20entropia_desktop_lib2db8commands9db_selects0_0B7_
FN:41,_RNCNvNtNtCs33ezxKbzRES_20entropia_desktop_lib2db8commands9db_selects1_0B7_
FN:45,_RNCNvNtNtCs33ezxKbzRES_20entropia_desktop_lib2db8commands9db_selects2_0B7_
FN:53,_RNCNvNtNtCs33ezxKbzRES_20entropia_desktop_lib2db8commands9db_selects3_0B7_
FN:55,_RNCNvNtNtCs33ezxKbzRES_20entropia_desktop_lib2db8commands9db_selects4_0B7_
FN:37,_RNCNvNtNtCs33ezxKbzRES_20entropia_desktop_lib2db8commands9db_selects_0B7_
FN:13,_RNvNtNtCs33ezxKbzRES_20entropia_desktop_lib2db8commands10db_execute
FN:88,_RNvNtNtCs33ezxKbzRES_20entropia_desktop_lib2db8commands13base64_encode
FN:60,_RNvNtNtCs33ezxKbzRES_20entropia_desktop_lib2db8commands17json_to_sql_param
FN:78,_RNvNtNtCs33ezxKbzRES_20entropia_desktop_lib2db8commands22rusqlite_value_to_json
FN:30,_RNvNtNtCs33ezxKbzRES_20entropia_desktop_lib2db8commands9db_select
FNDA:0,_RNCNvNtNtCs84fopnVJSSS_20entropia_desktop_lib2db8commands10db_execute0B7_
FNDA:0,_RNCNvNtNtCs84fopnVJSSS_20entropia_desktop_lib2db8commands10db_executes0_0B7_
FNDA:0,_RNCNvNtNtCs84fopnVJSSS_20entropia_desktop_lib2db8commands10db_executes_0B7_
FNDA:0,_RNCNvNtNtCs84fopnVJSSS_20entropia_desktop_lib2db8commands9db_select0B7_
FNDA:0,_RNCNvNtNtCs84fopnVJSSS_20entropia_desktop_lib2db8commands9db_selects0_0B7_
FNDA:0,_RNCNvNtNtCs84fopnVJSSS_20entropia_desktop_lib2db8commands9db_selects1_0B7_
FNDA:0,_RNCNvNtNtCs84fopnVJSSS_20entropia_desktop_lib2db8commands9db_selects2_0B7_
FNDA:0,_RNCNvNtNtCs84fopnVJSSS_20entropia_desktop_lib2db8commands9db_selects3_0B7_
FNDA:0,_RNCNvNtNtCs84fopnVJSSS_20entropia_desktop_lib2db8commands9db_selects4_0B7_
FNDA:0,_RNCNvNtNtCs84fopnVJSSS_20entropia_desktop_lib2db8commands9db_selects_0B7_
FNDA:0,_RNvNtNtCs84fopnVJSSS_20entropia_desktop_lib2db8commands10db_execute
FNDA:0,_RNvNtNtCs84fopnVJSSS_20entropia_desktop_lib2db8commands13base64_encode
FNDA:0,_RNvNtNtCs84fopnVJSSS_20entropia_desktop_lib2db8commands17json_to_sql_param
FNDA:0,_RNvNtNtCs84fopnVJSSS_20entropia_desktop_lib2db8commands22rusqlite_value_to_json
FNDA:0,_RNvNtNtCs84fopnVJSSS_20entropia_desktop_lib2db8commands9db_select
FNDA:0,_RNCNvNtNtCs33ezxKbzRES_20entropia_desktop_lib2db8commands10db_execute0B7_
FNDA:0,_RNCNvNtNtCs33ezxKbzRES_20entropia_desktop_lib2db8commands10db_executes0_0B7_
FNDA:0,_RNCNvNtNtCs33ezxKbzRES_20entropia_desktop_lib2db8commands10db_executes_0B7_
FNDA:0,_RNCNvNtNtCs33ezxKbzRES_20entropia_desktop_lib2db8commands9db_select0B7_
FNDA:0,_RNCNvNtNtCs33ezxKbzRES_20entropia_desktop_lib2db8commands9db_selects0_0B7_
FNDA:0,_RNCNvNtNtCs33ezxKbzRES_20entropia_desktop_lib2db8commands9db_selects1_0B7_
FNDA:0,_RNCNvNtNtCs33ezxKbzRES_20entropia_desktop_lib2db8commands9db_selects2_0B7_
FNDA:0,_RNCNvNtNtCs33ezxKbzRES_20entropia_desktop_lib2db8commands9db_selects3_0B7_
FNDA:0,_RNCNvNtNtCs33ezxKbzRES_20entropia_desktop_lib2db8commands9db_selects4_0B7_
FNDA:0,_RNCNvNtNtCs33ezxKbzRES_20entropia_desktop_lib2db8commands9db_selects_0B7_
FNDA:0,_RNvNtNtCs33ezxKbzRES_20entropia_desktop_lib2db8commands10db_execute
FNDA:0,_RNvNtNtCs33ezxKbzRES_20entropia_desktop_lib2db8commands13base64_encode
FNDA:0,_RNvNtNtCs33ezxKbzRES_20entropia_desktop_lib2db8commands17json_to_sql_param
FNDA:0,_RNvNtNtCs33ezxKbzRES_20entropia_desktop_lib2db8commands22rusqlite_value_to_json
FNDA:0,_RNvNtNtCs33ezxKbzRES_20entropia_desktop_lib2db8commands9db_select
FNF:15
FNH:0
DA:13,0
DA:14,0
DA:15,0
DA:16,0
DA:17,0
DA:18,0
DA:19,0
DA:20,0
DA:21,0
DA:22,0
DA:23,0
DA:24,0
DA:25,0
DA:26,0
DA:27,0
DA:30,0
DA:31,0
DA:32,0
DA:33,0
DA:34,0
DA:35,0
DA:36,0
DA:37,0
DA:38,0
DA:39,0
DA:40,0
DA:41,0
DA:42,0
DA:44,0
DA:45,0
DA:46,0
DA:47,0
DA:48,0
DA:49,0
DA:51,0
DA:52,0
DA:53,0
DA:54,0
DA:55,0
DA:57,0
DA:58,0
DA:60,0
DA:61,0
DA:62,0
DA:63,0
DA:64,0
DA:65,0
DA:66,0
DA:67,0
DA:68,0
DA:70,0
DA:73,0
DA:74,0
DA:76,0
DA:78,0
DA:79,0
DA:80,0
DA:81,0
DA:82,0
DA:83,0
DA:84,0
DA:86,0
DA:88,0
DA:91,0
DA:92,0
DA:93,0
DA:94,0
DA:95,0
DA:97,0
DA:99,0
DA:100,0
DA:102,0
DA:104,0
DA:105,0
DA:106,0
DA:107,0
DA:108,0
DA:109,0
DA:110,0
DA:111,0
DA:112,0
DA:113,0
DA:114,0
DA:115,0
DA:117,0
DA:118,0
BRF:0
BRH:0
LF:96
LH:0
end_of_record
SF:D:\a\EntropIA\EntropIA\apps\desktop\src-tauri\src\db\state.rs
FN:17,_RNvMNtNtCs84fopnVJSSS_20entropia_desktop_lib2db5stateNtB2_10AppDbState11worker_conn
FN:10,_RNvMNtNtCs84fopnVJSSS_20entropia_desktop_lib2db5stateNtB2_10AppDbState3new
FN:10,_RNvMNtNtCs33ezxKbzRES_20entropia_desktop_lib2db5stateNtB2_10AppDbState3new
FN:17,_RNvMNtNtCs33ezxKbzRES_20entropia_desktop_lib2db5stateNtB2_10AppDbState11worker_conn
FNDA:0,_RNvMNtNtCs84fopnVJSSS_20entropia_desktop_lib2db5stateNtB2_10AppDbState11worker_conn
FNDA:0,_RNvMNtNtCs84fopnVJSSS_20entropia_desktop_lib2db5stateNtB2_10AppDbState3new
FNDA:0,_RNvMNtNtCs33ezxKbzRES_20entropia_desktop_lib2db5stateNtB2_10AppDbState3new
FNDA:0,_RNvMNtNtCs33ezxKbzRES_20entropia_desktop_lib2db5stateNtB2_10AppDbState11worker_conn
FNF:2
FNH:0
DA:10,0
DA:11,0
DA:12,0
DA:13,0
DA:14,0
DA:15,0
DA:17,0
DA:18,0
DA:19,0
BRF:0
BRH:0
LF:9
LH:0
end_of_record
SF:D:\a\EntropIA\EntropIA\apps\desktop\src-tauri\src\lib.rs
FN:15,_RNCNvCs84fopnVJSSS_20entropia_desktop_lib3run0B3_
FN:11,_RNvCs84fopnVJSSS_20entropia_desktop_lib3run
FN:15,_RNCNvCs33ezxKbzRES_20entropia_desktop_lib3run0B3_
FN:11,_RNvCs33ezxKbzRES_20entropia_desktop_lib3run
FNDA:0,_RNCNvCs84fopnVJSSS_20entropia_desktop_lib3run0B3_
FNDA:0,_RNvCs84fopnVJSSS_20entropia_desktop_lib3run
FNDA:0,_RNCNvCs33ezxKbzRES_20entropia_desktop_lib3run0B3_
FNDA:0,_RNvCs33ezxKbzRES_20entropia_desktop_lib3run
FNF:2
FNH:0
DA:11,0
DA:12,0
DA:13,0
DA:14,0
DA:15,0
DA:16,0
DA:17,0
DA:18,0
DA:19,0
DA:20,0
DA:22,0
DA:25,0
DA:26,0
DA:27,0
DA:28,0
DA:29,0
DA:32,0
DA:33,0
DA:34,0
DA:35,0
DA:36,0
DA:38,0
DA:41,0
DA:42,0
DA:43,0
DA:48,0
DA:49,0
DA:50,0
DA:52,0
DA:53,0
DA:54,0
DA:65,0
DA:66,0
DA:67,0
BRF:0
BRH:0
LF:35
LH:0
end_of_record
SF:D:\a\EntropIA\EntropIA\apps\desktop\src-tauri\src\main.rs
FN:4,_RNvCsdS2QBfVAKpN_16entropia_desktop4main
FNDA:0,_RNvCsdS2QBfVAKpN_16entropia_desktop4main
FNF:1
FNH:0
DA:4,0
DA:5,0
DA:6,0
BRF:0
BRH:0
LF:3
LH:0
end_of_record
SF:D:\a\EntropIA\EntropIA\apps\desktop\src-tauri\src\nlp\commands.rs
FN:107,_RNvNtNtNtCs84fopnVJSSS_20entropia_desktop_lib3nlp8commands5testss_39enqueue_keeps_non_embedding_jobs_stable
FN:79,_RNvNtNtNtCs84fopnVJSSS_20entropia_desktop_lib3nlp8commands5testss_51enqueue_propagates_queue_error_when_channel_is_full
FN:65,_RNvNtNtNtCs84fopnVJSSS_20entropia_desktop_lib3nlp8commands5testss_59enqueue_accepts_extract_triples_job_when_queue_has_capacity
FN:10,_RNvNtNtCs84fopnVJSSS_20entropia_desktop_lib3nlp8commands7enqueue
FN:169,_RNCNCNCNvCs84fopnVJSSS_20entropia_desktop_lib3runs_000B7_
FN:52,_RNCNCNCNvCs84fopnVJSSS_20entropia_desktop_lib3runs_0s0_00B7_
FN:43,_RNCNCNCNvCs84fopnVJSSS_20entropia_desktop_lib3runs_0s1_00B7_
FN:31,_RNCNCNCNvCs84fopnVJSSS_20entropia_desktop_lib3runs_0s2_00B7_
FN:19,_RNCNCNCNvCs84fopnVJSSS_20entropia_desktop_lib3runs_0s3_00B7_
FN:143,_RNCNCNCNvCs84fopnVJSSS_20entropia_desktop_lib3runs_0s_00B7_
FN:35,_RNCNvNtNtCs84fopnVJSSS_20entropia_desktop_lib3nlp8commands10embed_item0B7_
FN:148,_RNCNvNtNtCs84fopnVJSSS_20entropia_desktop_lib3nlp8commands10fts_search0B7_
FN:174,_RNCNvNtNtCs84fopnVJSSS_20entropia_desktop_lib3nlp8commands13similar_items0B7_
FN:56,_RNCNvNtNtCs84fopnVJSSS_20entropia_desktop_lib3nlp8commands15extract_triples0B7_
FN:47,_RNCNvNtNtCs84fopnVJSSS_20entropia_desktop_lib3nlp8commands16extract_entities0B7_
FN:23,_RNCNvNtNtCs84fopnVJSSS_20entropia_desktop_lib3nlp8commands9index_fts0B7_
FN:32,_RNvNtNtCs84fopnVJSSS_20entropia_desktop_lib3nlp8commands10embed_item
FN:144,_RNvNtNtCs84fopnVJSSS_20entropia_desktop_lib3nlp8commands10fts_search
FN:170,_RNvNtNtCs84fopnVJSSS_20entropia_desktop_lib3nlp8commands13similar_items
FN:53,_RNvNtNtCs84fopnVJSSS_20entropia_desktop_lib3nlp8commands15extract_triples
FN:44,_RNvNtNtCs84fopnVJSSS_20entropia_desktop_lib3nlp8commands16extract_entities
FN:20,_RNvNtNtCs84fopnVJSSS_20entropia_desktop_lib3nlp8commands9index_fts
FN:169,_RNCNCNCNvCs33ezxKbzRES_20entropia_desktop_lib3runs_000B7_
FN:52,_RNCNCNCNvCs33ezxKbzRES_20entropia_desktop_lib3runs_0s0_00B7_
FN:43,_RNCNCNCNvCs33ezxKbzRES_20entropia_desktop_lib3runs_0s1_00B7_
FN:31,_RNCNCNCNvCs33ezxKbzRES_20entropia_desktop_lib3runs_0s2_00B7_
FN:19,_RNCNCNCNvCs33ezxKbzRES_20entropia_desktop_lib3runs_0s3_00B7_
FN:143,_RNCNCNCNvCs33ezxKbzRES_20entropia_desktop_lib3runs_0s_00B7_
FN:35,_RNCNvNtNtCs33ezxKbzRES_20entropia_desktop_lib3nlp8commands10embed_item0B7_
FN:148,_RNCNvNtNtCs33ezxKbzRES_20entropia_desktop_lib3nlp8commands10fts_search0B7_
FN:174,_RNCNvNtNtCs33ezxKbzRES_20entropia_desktop_lib3nlp8commands13similar_items0B7_
FN:56,_RNCNvNtNtCs33ezxKbzRES_20entropia_desktop_lib3nlp8commands15extract_triples0B7_
FN:47,_RNCNvNtNtCs33ezxKbzRES_20entropia_desktop_lib3nlp8commands16extract_entities0B7_
FN:23,_RNCNvNtNtCs33ezxKbzRES_20entropia_desktop_lib3nlp8commands9index_fts0B7_
FN:32,_RNvNtNtCs33ezxKbzRES_20entropia_desktop_lib3nlp8commands10embed_item
FN:144,_RNvNtNtCs33ezxKbzRES_20entropia_desktop_lib3nlp8commands10fts_search
FN:170,_RNvNtNtCs33ezxKbzRES_20entropia_desktop_lib3nlp8commands13similar_items
FN:53,_RNvNtNtCs33ezxKbzRES_20entropia_desktop_lib3nlp8commands15extract_triples
FN:44,_RNvNtNtCs33ezxKbzRES_20entropia_desktop_lib3nlp8commands16extract_entities
FN:10,_RNvNtNtCs33ezxKbzRES_20entropia_desktop_lib3nlp8commands7enqueue
FN:20,_RNvNtNtCs33ezxKbzRES_20entropia_desktop_lib3nlp8commands9index_fts
FNDA:1,_RNvNtNtNtCs84fopnVJSSS_20entropia_desktop_lib3nlp8commands5testss_39enqueue_keeps_non_embedding_jobs_stable
FNDA:1,_RNvNtNtNtCs84fopnVJSSS_20entropia_desktop_lib3nlp8commands5testss_51enqueue_propagates_queue_error_when_channel_is_full
FNDA:1,_RNvNtNtNtCs84fopnVJSSS_20entropia_desktop_lib3nlp8commands5testss_59enqueue_accepts_extract_triples_job_when_queue_has_capacity
FNDA:69,_RNvNtNtCs84fopnVJSSS_20entropia_desktop_lib3nlp8commands7enqueue
FNDA:0,_RNCNCNCNvCs84fopnVJSSS_20entropia_desktop_lib3runs_000B7_
FNDA:0,_RNCNCNCNvCs84fopnVJSSS_20entropia_desktop_lib3runs_0s0_00B7_
FNDA:0,_RNCNCNCNvCs84fopnVJSSS_20entropia_desktop_lib3runs_0s1_00B7_
FNDA:0,_RNCNCNCNvCs84fopnVJSSS_20entropia_desktop_lib3runs_0s2_00B7_
FNDA:0,_RNCNCNCNvCs84fopnVJSSS_20entropia_desktop_lib3runs_0s3_00B7_
FNDA:0,_RNCNCNCNvCs84fopnVJSSS_20entropia_desktop_lib3runs_0s_00B7_
FNDA:0,_RNCNvNtNtCs84fopnVJSSS_20entropia_desktop_lib3nlp8commands10embed_item0B7_
FNDA:0,_RNCNvNtNtCs84fopnVJSSS_20entropia_desktop_lib3nlp8commands10fts_search0B7_
FNDA:0,_RNCNvNtNtCs84fopnVJSSS_20entropia_desktop_lib3nlp8commands13similar_items0B7_
FNDA:0,_RNCNvNtNtCs84fopnVJSSS_20entropia_desktop_lib3nlp8commands15extract_triples0B7_
FNDA:0,_RNCNvNtNtCs84fopnVJSSS_20entropia_desktop_lib3nlp8commands16extract_entities0B7_
FNDA:0,_RNCNvNtNtCs84fopnVJSSS_20entropia_desktop_lib3nlp8commands9index_fts0B7_
FNDA:0,_RNvNtNtCs84fopnVJSSS_20entropia_desktop_lib3nlp8commands10embed_item
FNDA:0,_RNvNtNtCs84fopnVJSSS_20entropia_desktop_lib3nlp8commands10fts_search
FNDA:0,_RNvNtNtCs84fopnVJSSS_20entropia_desktop_lib3nlp8commands13similar_items
FNDA:0,_RNvNtNtCs84fopnVJSSS_20entropia_desktop_lib3nlp8commands15extract_triples
FNDA:0,_RNvNtNtCs84fopnVJSSS_20entropia_desktop_lib3nlp8commands16extract_entities
FNDA:0,_RNvNtNtCs84fopnVJSSS_20entropia_desktop_lib3nlp8commands9index_fts
FNDA:0,_RNCNCNCNvCs33ezxKbzRES_20entropia_desktop_lib3runs_000B7_
FNDA:0,_RNCNCNCNvCs33ezxKbzRES_20entropia_desktop_lib3runs_0s0_00B7_
FNDA:0,_RNCNCNCNvCs33ezxKbzRES_20entropia_desktop_lib3runs_0s1_00B7_
FNDA:0,_RNCNCNCNvCs33ezxKbzRES_20entropia_desktop_lib3runs_0s2_00B7_
FNDA:0,_RNCNCNCNvCs33ezxKbzRES_20entropia_desktop_lib3runs_0s3_00B7_
FNDA:0,_RNCNCNCNvCs33ezxKbzRES_20entropia_desktop_lib3runs_0s_00B7_
FNDA:0,_RNCNvNtNtCs33ezxKbzRES_20entropia_desktop_lib3nlp8commands10embed_item0B7_
FNDA:0,_RNCNvNtNtCs33ezxKbzRES_20entropia_desktop_lib3nlp8commands10fts_search0B7_
FNDA:0,_RNCNvNtNtCs33ezxKbzRES_20entropia_desktop_lib3nlp8commands13similar_items0B7_
FNDA:0,_RNCNvNtNtCs33ezxKbzRES_20entropia_desktop_lib3nlp8commands15extract_triples0B7_
FNDA:0,_RNCNvNtNtCs33ezxKbzRES_20entropia_desktop_lib3nlp8commands16extract_entities0B7_
FNDA:0,_RNCNvNtNtCs33ezxKbzRES_20entropia_desktop_lib3nlp8commands9index_fts0B7_
FNDA:0,_RNvNtNtCs33ezxKbzRES_20entropia_desktop_lib3nlp8commands10embed_item
FNDA:0,_RNvNtNtCs33ezxKbzRES_20entropia_desktop_lib3nlp8commands10fts_search
FNDA:0,_RNvNtNtCs33ezxKbzRES_20entropia_desktop_lib3nlp8commands13similar_items
FNDA:0,_RNvNtNtCs33ezxKbzRES_20entropia_desktop_lib3nlp8commands15extract_triples
FNDA:0,_RNvNtNtCs33ezxKbzRES_20entropia_desktop_lib3nlp8commands16extract_entities
FNDA:0,_RNvNtNtCs33ezxKbzRES_20entropia_desktop_lib3nlp8commands7enqueue
FNDA:0,_RNvNtNtCs33ezxKbzRES_20entropia_desktop_lib3nlp8commands9index_fts
FNF:22
FNH:4
DA:10,69
DA:11,69
DA:12,68
DA:13,69
DA:19,0
DA:20,0
DA:21,0
DA:22,0
DA:23,0
DA:24,0
DA:25,0
DA:31,0
DA:32,0
DA:33,0
DA:34,0
DA:35,0
DA:36,0
DA:37,0
DA:43,0
DA:44,0
DA:45,0
DA:46,0
DA:47,0
DA:48,0
DA:49,0
DA:52,0
DA:53,0
DA:54,0
DA:55,0
DA:56,0
DA:57,0
DA:58,0
DA:65,1
DA:66,1
DA:67,1
DA:68,1
DA:69,1
DA:70,1
DA:71,1
DA:74,1
DA:75,1
DA:76,1
DA:79,1
DA:80,1
DA:82,65
DA:83,64
DA:84,64
DA:85,64
DA:86,64
DA:87,64
DA:89,64
DA:92,1
DA:93,1
DA:94,1
DA:95,1
DA:96,1
DA:99,1
DA:100,1
DA:101,1
DA:102,0
DA:104,1
DA:107,1
DA:108,1
DA:110,1
DA:111,1
DA:112,1
DA:113,1
DA:114,1
DA:116,1
DA:117,1
DA:118,1
DA:119,1
DA:120,1
DA:122,1
DA:123,1
DA:124,1
DA:125,1
DA:126,1
DA:129,1
DA:130,1
DA:131,1
DA:132,1
DA:143,0
DA:144,0
DA:145,0
DA:146,0
DA:147,0
DA:148,0
DA:156,0
DA:157,0
DA:158,0
DA:159,0
DA:160,0
DA:161,0
DA:162,0
DA:163,0
DA:169,0
DA:170,0
DA:171,0
DA:172,0
DA:173,0
DA:174,0
DA:175,0
DA:176,0
DA:179,0
DA:180,0
DA:181,0
DA:182,0
DA:183,0
DA:184,0
BRF:0
BRH:0
LF:116
LH:53
end_of_record
SF:D:\a\EntropIA\EntropIA\apps\desktop\src-tauri\src\nlp\embeddings.rs
FN:89,_RNCNvNtNtCs84fopnVJSSS_20entropia_desktop_lib3nlp10embeddings14floats_to_blob0B7_
FN:27,_RNCNvNtNtCs84fopnVJSSS_20entropia_desktop_lib3nlp10embeddings17compute_and_store0B7_
FN:131,_RNCNvNtNtNtCs84fopnVJSSS_20entropia_desktop_lib3nlp10embeddings5testss_36floats_to_blob_round_trips_correctly0B9_
FN:168,_RNCNvNtNtNtCs84fopnVJSSS_20entropia_desktop_lib3nlp10embeddings5testss_50upsert_vec_item_writes_when_vec_items_table_exists0B9_
FN:55,_RNvNtNtCs84fopnVJSSS_20entropia_desktop_lib3nlp10embeddings10embed_text
FN:88,_RNvNtNtCs84fopnVJSSS_20entropia_desktop_lib3nlp10embeddings14floats_to_blob
FN:96,_RNvNtNtCs84fopnVJSSS_20entropia_desktop_lib3nlp10embeddings15upsert_vec_item
FN:14,_RNvNtNtCs84fopnVJSSS_20entropia_desktop_lib3nlp10embeddings17compute_and_store
FN:92,_RNvNtNtCs84fopnVJSSS_20entropia_desktop_lib3nlp10embeddings25embedding_degradation_log
FN:137,_RNvNtNtNtCs84fopnVJSSS_20entropia_desktop_lib3nlp10embeddings5testss_29empty_vec_produces_empty_blob
FN:126,_RNvNtNtNtCs84fopnVJSSS_20entropia_desktop_lib3nlp10embeddings5testss_36floats_to_blob_round_trips_correctly
FN:119,_RNvNtNtNtCs84fopnVJSSS_20entropia_desktop_lib3nlp10embeddings5testss_42floats_to_blob_produces_correct_byte_count
FN:153,_RNvNtNtNtCs84fopnVJSSS_20entropia_desktop_lib3nlp10embeddings5testss_50upsert_vec_item_writes_when_vec_items_table_exists
FN:175,_RNvNtNtNtCs84fopnVJSSS_20entropia_desktop_lib3nlp10embeddings5testss_53embedding_degradation_log_includes_item_id_and_reason
FN:199,_RNvNtNtNtCs84fopnVJSSS_20entropia_desktop_lib3nlp10embeddings5testss_62compute_and_store_degrades_gracefully_when_feature_is_disabled
FN:189,_RNvNtNtNtCs84fopnVJSSS_20entropia_desktop_lib3nlp10embeddings5testss_63embedding_degradation_log_keeps_expected_prefix_for_grepability
FN:143,_RNvNtNtNtCs84fopnVJSSS_20entropia_desktop_lib3nlp10embeddings5testss_64upsert_vec_item_degrades_gracefully_when_vec_items_table_missing
FN:89,_RNCNvNtNtCs33ezxKbzRES_20entropia_desktop_lib3nlp10embeddings14floats_to_blob0B7_
FN:27,_RNCNvNtNtCs33ezxKbzRES_20entropia_desktop_lib3nlp10embeddings17compute_and_store0B7_
FN:55,_RNvNtNtCs33ezxKbzRES_20entropia_desktop_lib3nlp10embeddings10embed_text
FN:88,_RNvNtNtCs33ezxKbzRES_20entropia_desktop_lib3nlp10embeddings14floats_to_blob
FN:96,_RNvNtNtCs33ezxKbzRES_20entropia_desktop_lib3nlp10embeddings15upsert_vec_item
FN:14,_RNvNtNtCs33ezxKbzRES_20entropia_desktop_lib3nlp10embeddings17compute_and_store
FN:92,_RNvNtNtCs33ezxKbzRES_20entropia_desktop_lib3nlp10embeddings25embedding_degradation_log
FNDA:6,_RNCNvNtNtCs84fopnVJSSS_20entropia_desktop_lib3nlp10embeddings14floats_to_blob0B7_
FNDA:2,_RNCNvNtNtCs84fopnVJSSS_20entropia_desktop_lib3nlp10embeddings17compute_and_store0B7_
FNDA:3,_RNCNvNtNtNtCs84fopnVJSSS_20entropia_desktop_lib3nlp10embeddings5testss_36floats_to_blob_round_trips_correctly0B9_
FNDA:1,_RNCNvNtNtNtCs84fopnVJSSS_20entropia_desktop_lib3nlp10embeddings5testss_50upsert_vec_item_writes_when_vec_items_table_exists0B9_
FNDA:2,_RNvNtNtCs84fopnVJSSS_20entropia_desktop_lib3nlp10embeddings10embed_text
FNDA:3,_RNvNtNtCs84fopnVJSSS_20entropia_desktop_lib3nlp10embeddings14floats_to_blob
FNDA:2,_RNvNtNtCs84fopnVJSSS_20entropia_desktop_lib3nlp10embeddings15upsert_vec_item
FNDA:3,_RNvNtNtCs84fopnVJSSS_20entropia_desktop_lib3nlp10embeddings17compute_and_store
FNDA:4,_RNvNtNtCs84fopnVJSSS_20entropia_desktop_lib3nlp10embeddings25embedding_degradation_log
FNDA:1,_RNvNtNtNtCs84fopnVJSSS_20entropia_desktop_lib3nlp10embeddings5testss_29empty_vec_produces_empty_blob
FNDA:1,_RNvNtNtNtCs84fopnVJSSS_20entropia_desktop_lib3nlp10embeddings5testss_36floats_to_blob_round_trips_correctly
FNDA:1,_RNvNtNtNtCs84fopnVJSSS_20entropia_desktop_lib3nlp10embeddings5testss_42floats_to_blob_produces_correct_byte_count
FNDA:1,_RNvNtNtNtCs84fopnVJSSS_20entropia_desktop_lib3nlp10embeddings5testss_50upsert_vec_item_writes_when_vec_items_table_exists
FNDA:1,_RNvNtNtNtCs84fopnVJSSS_20entropia_desktop_lib3nlp10embeddings5testss_53embedding_degradation_log_includes_item_id_and_reason
FNDA:1,_RNvNtNtNtCs84fopnVJSSS_20entropia_desktop_lib3nlp10embeddings5testss_62compute_and_store_degrades_gracefully_when_feature_is_disabled
FNDA:1,_RNvNtNtNtCs84fopnVJSSS_20entropia_desktop_lib3nlp10embeddings5testss_63embedding_degradation_log_keeps_expected_prefix_for_grepability
FNDA:1,_RNvNtNtNtCs84fopnVJSSS_20entropia_desktop_lib3nlp10embeddings5testss_64upsert_vec_item_degrades_gracefully_when_vec_items_table_missing
FNDA:0,_RNCNvNtNtCs33ezxKbzRES_20entropia_desktop_lib3nlp10embeddings14floats_to_blob0B7_
FNDA:0,_RNCNvNtNtCs33ezxKbzRES_20entropia_desktop_lib3nlp10embeddings17compute_and_store0B7_
FNDA:0,_RNvNtNtCs33ezxKbzRES_20entropia_desktop_lib3nlp10embeddings10embed_text
FNDA:0,_RNvNtNtCs33ezxKbzRES_20entropia_desktop_lib3nlp10embeddings14floats_to_blob
FNDA:0,_RNvNtNtCs33ezxKbzRES_20entropia_desktop_lib3nlp10embeddings15upsert_vec_item
FNDA:0,_RNvNtNtCs33ezxKbzRES_20entropia_desktop_lib3nlp10embeddings17compute_and_store
FNDA:0,_RNvNtNtCs33ezxKbzRES_20entropia_desktop_lib3nlp10embeddings25embedding_degradation_log
FNF:17
FNH:17
DA:14,3
DA:16,3
DA:17,3
DA:18,3
DA:19,3
DA:20,3
DA:21,3
DA:22,3
DA:23,3
DA:24,3
DA:25,3
DA:26,3
DA:27,2
DA:29,3
DA:31,2
DA:32,2
DA:33,1
DA:37,2
DA:38,0
DA:39,2
DA:41,2
DA:42,2
DA:47,0
DA:48,0
DA:49,3
DA:55,2
DA:58,2
DA:59,2
DA:83,2
DA:88,3
DA:89,6
DA:90,3
DA:92,4
DA:93,4
DA:94,4
DA:96,2
DA:97,2
DA:98,2
DA:99,2
DA:102,2
DA:103,1
DA:104,1
DA:106,1
DA:107,1
DA:110,2
DA:119,1
DA:120,1
DA:121,1
DA:122,1
DA:123,1
DA:126,1
DA:127,1
DA:128,1
DA:129,1
DA:130,1
DA:131,3
DA:132,1
DA:133,1
DA:134,1
DA:137,1
DA:138,1
DA:139,1
DA:140,1
DA:143,1
DA:144,1
DA:145,1
DA:146,1
DA:147,1
DA:148,0
DA:150,1
DA:153,1
DA:154,1
DA:155,1
DA:156,1
DA:157,1
DA:159,1
DA:161,1
DA:162,1
DA:164,1
DA:165,1
DA:166,1
DA:167,1
DA:168,1
DA:170,1
DA:171,1
DA:172,1
DA:175,1
DA:176,1
DA:177,1
DA:178,1
DA:179,1
DA:180,0
DA:182,1
DA:183,1
DA:184,0
DA:186,1
DA:189,1
DA:190,1
DA:191,1
DA:192,1
DA:193,0
DA:195,1
DA:199,1
DA:200,1
DA:201,1
DA:202,1
DA:203,1
DA:204,1
DA:205,1
DA:206,1
DA:207,1
DA:208,1
DA:209,1
DA:210,1
DA:212,1
DA:214,1
DA:215,1
DA:216,1
DA:218,1
DA:219,1
DA:220,1
DA:221,1
DA:223,1
DA:225,1
DA:226,1
DA:227,1
DA:228,0
DA:230,1
BRF:0
BRH:0
LF:130
LH:122
end_of_record
SF:D:\a\EntropIA\EntropIA\apps\desktop\src-tauri\src\nlp\fts.rs
FN:407,_RNCNvNtNtNtCs84fopnVJSSS_20entropia_desktop_lib3nlp3fts5testss_39fts_search_row_mapping_failure_is_error0B9_
FN:330,_RNCNvNtNtNtCs84fopnVJSSS_20entropia_desktop_lib3nlp3fts5testss_40fts_index_upsert_replaces_previous_entry0B9_
FN:236,_RNvNtNtNtCs84fopnVJSSS_20entropia_desktop_lib3nlp3fts5tests12setup_fts_db
FN:210,_RNvNtNtNtCs84fopnVJSSS_20entropia_desktop_lib3nlp3fts5testss_25sanitize_fts5_query_cases
FN:261,_RNvNtNtNtCs84fopnVJSSS_20entropia_desktop_lib3nlp3fts5testss_26fts_index_and_search_basic
FN:336,_RNvNtNtNtCs84fopnVJSSS_20entropia_desktop_lib3nlp3fts5testss_29fts_search_ranks_by_relevance
FN:301,_RNvNtNtNtCs84fopnVJSSS_20entropia_desktop_lib3nlp3fts5testss_36fts_search_empty_query_returns_empty
FN:285,_RNvNtNtNtCs84fopnVJSSS_20entropia_desktop_lib3nlp3fts5testss_37fts_search_returns_empty_for_no_match
FN:394,_RNvNtNtNtCs84fopnVJSSS_20entropia_desktop_lib3nlp3fts5testss_39fts_search_row_mapping_failure_is_error
FN:360,_RNvNtNtNtCs84fopnVJSSS_20entropia_desktop_lib3nlp3fts5testss_39fts_search_scoped_filters_by_collection
FN:308,_RNvNtNtNtCs84fopnVJSSS_20entropia_desktop_lib3nlp3fts5testss_40fts_index_upsert_replaces_previous_entry
FN:387,_RNvNtNtNtCs84fopnVJSSS_20entropia_desktop_lib3nlp3fts5testss_40fts_search_only_operators_short_circuits
FN:182,_RINvNtNtCs84fopnVJSSS_20entropia_desktop_lib3nlp3fts12map_fts_rowsRSRDNtNtNtCs8Hn4gg7ZSU_8rusqlite5types6to_sql5ToSqlEL_EB6_
FN:187,_RNCINvNtNtCs84fopnVJSSS_20entropia_desktop_lib3nlp3fts12map_fts_rowsRSRDNtNtNtCs8Hn4gg7ZSU_8rusqlite5types6to_sql5ToSqlEL_E0B8_
FN:198,_RNCINvNtNtCs84fopnVJSSS_20entropia_desktop_lib3nlp3fts12map_fts_rowsRSRDNtNtNtCs8Hn4gg7ZSU_8rusqlite5types6to_sql5ToSqlEL_Es0_0B8_
FN:194,_RNCINvNtNtCs84fopnVJSSS_20entropia_desktop_lib3nlp3fts12map_fts_rowsRSRDNtNtNtCs8Hn4gg7ZSU_8rusqlite5types6to_sql5ToSqlEL_Es_0B8_
FN:124,_RNCNvNtNtCs84fopnVJSSS_20entropia_desktop_lib3nlp3fts10fts_search0B7_
FN:138,_RNCNvNtNtCs84fopnVJSSS_20entropia_desktop_lib3nlp3fts10fts_searchs_0B7_
FN:78,_RNCNvNtNtCs84fopnVJSSS_20entropia_desktop_lib3nlp3fts14fts_index_item0B7_
FN:87,_RNCNvNtNtCs84fopnVJSSS_20entropia_desktop_lib3nlp3fts14fts_index_items0_0B7_
FN:80,_RNCNvNtNtCs84fopnVJSSS_20entropia_desktop_lib3nlp3fts14fts_index_items_0B7_
FN:29,_RNCNvNtNtCs84fopnVJSSS_20entropia_desktop_lib3nlp3fts18index_item_from_db0B7_
FN:53,_RNCNvNtNtCs84fopnVJSSS_20entropia_desktop_lib3nlp3fts18index_item_from_dbs0_0B7_
FN:54,_RNCNvNtNtCs84fopnVJSSS_20entropia_desktop_lib3nlp3fts18index_item_from_dbs1_0B7_
FN:55,_RNCNvNtNtCs84fopnVJSSS_20entropia_desktop_lib3nlp3fts18index_item_from_dbs2_0B7_
FN:50,_RNCNvNtNtCs84fopnVJSSS_20entropia_desktop_lib3nlp3fts18index_item_from_dbs_0B7_
FN:166,_RNCNvNtNtCs84fopnVJSSS_20entropia_desktop_lib3nlp3fts19sanitize_fts5_query0B7_
FN:177,_RNCNvNtNtCs84fopnVJSSS_20entropia_desktop_lib3nlp3fts19sanitize_fts5_querys_0B7_
FN:98,_RNvNtNtCs84fopnVJSSS_20entropia_desktop_lib3nlp3fts10fts_search
FN:67,_RNvNtNtCs84fopnVJSSS_20entropia_desktop_lib3nlp3fts14fts_index_item
FN:23,_RNvNtNtCs84fopnVJSSS_20entropia_desktop_lib3nlp3fts18index_item_from_db
FN:150,_RNvNtNtCs84fopnVJSSS_20entropia_desktop_lib3nlp3fts19sanitize_fts5_query
FN:78,_RNCNvNtNtCs33ezxKbzRES_20entropia_desktop_lib3nlp3fts14fts_index_item0B7_
FN:87,_RNCNvNtNtCs33ezxKbzRES_20entropia_desktop_lib3nlp3fts14fts_index_items0_0B7_
FN:80,_RNCNvNtNtCs33ezxKbzRES_20entropia_desktop_lib3nlp3fts14fts_index_items_0B7_
FN:29,_RNCNvNtNtCs33ezxKbzRES_20entropia_desktop_lib3nlp3fts18index_item_from_db0B7_
FN:53,_RNCNvNtNtCs33ezxKbzRES_20entropia_desktop_lib3nlp3fts18index_item_from_dbs0_0B7_
FN:54,_RNCNvNtNtCs33ezxKbzRES_20entropia_desktop_lib3nlp3fts18index_item_from_dbs1_0B7_
FN:55,_RNCNvNtNtCs33ezxKbzRES_20entropia_desktop_lib3nlp3fts18index_item_from_dbs2_0B7_
FN:50,_RNCNvNtNtCs33ezxKbzRES_20entropia_desktop_lib3nlp3fts18index_item_from_dbs_0B7_
FN:166,_RNCNvNtNtCs33ezxKbzRES_20entropia_desktop_lib3nlp3fts19sanitize_fts5_query0B7_
FN:177,_RNCNvNtNtCs33ezxKbzRES_20entropia_desktop_lib3nlp3fts19sanitize_fts5_querys_0B7_
FN:67,_RNvNtNtCs33ezxKbzRES_20entropia_desktop_lib3nlp3fts14fts_index_item
FN:23,_RNvNtNtCs33ezxKbzRES_20entropia_desktop_lib3nlp3fts18index_item_from_db
FN:150,_RNvNtNtCs33ezxKbzRES_20entropia_desktop_lib3nlp3fts19sanitize_fts5_query
FN:182,_RINvNtNtCs33ezxKbzRES_20entropia_desktop_lib3nlp3fts12map_fts_rowspEB6_
FN:187,_RNCINvNtNtCs33ezxKbzRES_20entropia_desktop_lib3nlp3fts12map_fts_rowspE0B8_
FN:198,_RNCINvNtNtCs33ezxKbzRES_20entropia_desktop_lib3nlp3fts12map_fts_rowspEs0_0B8_
FN:194,_RNCINvNtNtCs33ezxKbzRES_20entropia_desktop_lib3nlp3fts12map_fts_rowspEs_0B8_
FN:124,_RNCNvNtNtCs33ezxKbzRES_20entropia_desktop_lib3nlp3fts10fts_search0B7_
FN:138,_RNCNvNtNtCs33ezxKbzRES_20entropia_desktop_lib3nlp3fts10fts_searchs_0B7_
FN:98,_RNvNtNtCs33ezxKbzRES_20entropia_desktop_lib3nlp3fts10fts_search
FNDA:1,_RNCNvNtNtNtCs84fopnVJSSS_20entropia_desktop_lib3nlp3fts5testss_39fts_search_row_mapping_failure_is_error0B9_
FNDA:1,_RNCNvNtNtNtCs84fopnVJSSS_20entropia_desktop_lib3nlp3fts5testss_40fts_index_upsert_replaces_previous_entry0B9_
FNDA:8,_RNvNtNtNtCs84fopnVJSSS_20entropia_desktop_lib3nlp3fts5tests12setup_fts_db
FNDA:1,_RNvNtNtNtCs84fopnVJSSS_20entropia_desktop_lib3nlp3fts5testss_25sanitize_fts5_query_cases
FNDA:1,_RNvNtNtNtCs84fopnVJSSS_20entropia_desktop_lib3nlp3fts5testss_26fts_index_and_search_basic
FNDA:1,_RNvNtNtNtCs84fopnVJSSS_20entropia_desktop_lib3nlp3fts5testss_29fts_search_ranks_by_relevance
FNDA:1,_RNvNtNtNtCs84fopnVJSSS_20entropia_desktop_lib3nlp3fts5testss_36fts_search_empty_query_returns_empty
FNDA:1,_RNvNtNtNtCs84fopnVJSSS_20entropia_desktop_lib3nlp3fts5testss_37fts_search_returns_empty_for_no_match
FNDA:1,_RNvNtNtNtCs84fopnVJSSS_20entropia_desktop_lib3nlp3fts5testss_39fts_search_row_mapping_failure_is_error
FNDA:1,_RNvNtNtNtCs84fopnVJSSS_20entropia_desktop_lib3nlp3fts5testss_39fts_search_scoped_filters_by_collection
FNDA:1,_RNvNtNtNtCs84fopnVJSSS_20entropia_desktop_lib3nlp3fts5testss_40fts_index_upsert_replaces_previous_entry
FNDA:1,_RNvNtNtNtCs84fopnVJSSS_20entropia_desktop_lib3nlp3fts5testss_40fts_search_only_operators_short_circuits
FNDA:7,_RINvNtNtCs84fopnVJSSS_20entropia_desktop_lib3nlp3fts12map_fts_rowsRSRDNtNtNtCs8Hn4gg7ZSU_8rusqlite5types6to_sql5ToSqlEL_EB6_
FNDA:7,_RNCINvNtNtCs84fopnVJSSS_20entropia_desktop_lib3nlp3fts12map_fts_rowsRSRDNtNtNtCs8Hn4gg7ZSU_8rusqlite5types6to_sql5ToSqlEL_E0B8_
FNDA:1,_RNCINvNtNtCs84fopnVJSSS_20entropia_desktop_lib3nlp3fts12map_fts_rowsRSRDNtNtNtCs8Hn4gg7ZSU_8rusqlite5types6to_sql5ToSqlEL_Es0_0B8_
FNDA:0,_RNCINvNtNtCs84fopnVJSSS_20entropia_desktop_lib3nlp3fts12map_fts_rowsRSRDNtNtNtCs8Hn4gg7ZSU_8rusqlite5types6to_sql5ToSqlEL_Es_0B8_
FNDA:0,_RNCNvNtNtCs84fopnVJSSS_20entropia_desktop_lib3nlp3fts10fts_search0B7_
FNDA:0,_RNCNvNtNtCs84fopnVJSSS_20entropia_desktop_lib3nlp3fts10fts_searchs_0B7_
FNDA:10,_RNCNvNtNtCs84fopnVJSSS_20entropia_desktop_lib3nlp3fts14fts_index_item0B7_
FNDA:0,_RNCNvNtNtCs84fopnVJSSS_20entropia_desktop_lib3nlp3fts14fts_index_items0_0B7_
FNDA:0,_RNCNvNtNtCs84fopnVJSSS_20entropia_desktop_lib3nlp3fts14fts_index_items_0B7_
FNDA:2,_RNCNvNtNtCs84fopnVJSSS_20entropia_desktop_lib3nlp3fts18index_item_from_db0B7_
FNDA:2,_RNCNvNtNtCs84fopnVJSSS_20entropia_desktop_lib3nlp3fts18index_item_from_dbs0_0B7_
FNDA:0,_RNCNvNtNtCs84fopnVJSSS_20entropia_desktop_lib3nlp3fts18index_item_from_dbs1_0B7_
FNDA:2,_RNCNvNtNtCs84fopnVJSSS_20entropia_desktop_lib3nlp3fts18index_item_from_dbs2_0B7_
FNDA:0,_RNCNvNtNtCs84fopnVJSSS_20entropia_desktop_lib3nlp3fts18index_item_from_dbs_0B7_
FNDA:45,_RNCNvNtNtCs84fopnVJSSS_20entropia_desktop_lib3nlp3fts19sanitize_fts5_query0B7_
FNDA:34,_RNCNvNtNtCs84fopnVJSSS_20entropia_desktop_lib3nlp3fts19sanitize_fts5_querys_0B7_
FNDA:9,_RNvNtNtCs84fopnVJSSS_20entropia_desktop_lib3nlp3fts10fts_search
FNDA:10,_RNvNtNtCs84fopnVJSSS_20entropia_desktop_lib3nlp3fts14fts_index_item
FNDA:2,_RNvNtNtCs84fopnVJSSS_20entropia_desktop_lib3nlp3fts18index_item_from_db
FNDA:24,_RNvNtNtCs84fopnVJSSS_20entropia_desktop_lib3nlp3fts19sanitize_fts5_query
FNDA:0,_RNCNvNtNtCs33ezxKbzRES_20entropia_desktop_lib3nlp3fts14fts_index_item0B7_
FNDA:0,_RNCNvNtNtCs33ezxKbzRES_20entropia_desktop_lib3nlp3fts14fts_index_items0_0B7_
FNDA:0,_RNCNvNtNtCs33ezxKbzRES_20entropia_desktop_lib3nlp3fts14fts_index_items_0B7_
FNDA:0,_RNCNvNtNtCs33ezxKbzRES_20entropia_desktop_lib3nlp3fts18index_item_from_db0B7_
FNDA:0,_RNCNvNtNtCs33ezxKbzRES_20entropia_desktop_lib3nlp3fts18index_item_from_dbs0_0B7_
FNDA:0,_RNCNvNtNtCs33ezxKbzRES_20entropia_desktop_lib3nlp3fts18index_item_from_dbs1_0B7_
FNDA:0,_RNCNvNtNtCs33ezxKbzRES_20entropia_desktop_lib3nlp3fts18index_item_from_dbs2_0B7_
FNDA:0,_RNCNvNtNtCs33ezxKbzRES_20entropia_desktop_lib3nlp3fts18index_item_from_dbs_0B7_
FNDA:0,_RNCNvNtNtCs33ezxKbzRES_20entropia_desktop_lib3nlp3fts19sanitize_fts5_query0B7_
FNDA:0,_RNCNvNtNtCs33ezxKbzRES_20entropia_desktop_lib3nlp3fts19sanitize_fts5_querys_0B7_
FNDA:0,_RNvNtNtCs33ezxKbzRES_20entropia_desktop_lib3nlp3fts14fts_index_item
FNDA:0,_RNvNtNtCs33ezxKbzRES_20entropia_desktop_lib3nlp3fts18index_item_from_db
FNDA:0,_RNvNtNtCs33ezxKbzRES_20entropia_desktop_lib3nlp3fts19sanitize_fts5_query
FNDA:0,_RINvNtNtCs33ezxKbzRES_20entropia_desktop_lib3nlp3fts12map_fts_rowspEB6_
FNDA:0,_RNCINvNtNtCs33ezxKbzRES_20entropia_desktop_lib3nlp3fts12map_fts_rowspE0B8_
FNDA:0,_RNCINvNtNtCs33ezxKbzRES_20entropia_desktop_lib3nlp3fts12map_fts_rowspEs0_0B8_
FNDA:0,_RNCINvNtNtCs33ezxKbzRES_20entropia_desktop_lib3nlp3fts12map_fts_rowspEs_0B8_
FNDA:0,_RNCNvNtNtCs33ezxKbzRES_20entropia_desktop_lib3nlp3fts10fts_search0B7_
FNDA:0,_RNCNvNtNtCs33ezxKbzRES_20entropia_desktop_lib3nlp3fts10fts_searchs_0B7_
FNDA:0,_RNvNtNtCs33ezxKbzRES_20entropia_desktop_lib3nlp3fts10fts_search
FNF:32
FNH:25
DA:23,2
DA:25,2
DA:26,2
DA:27,2
DA:28,2
DA:29,2
DA:31,2
DA:33,2
DA:34,2
DA:35,0
DA:39,2
DA:40,2
DA:41,2
DA:42,2
DA:43,2
DA:44,2
DA:45,2
DA:46,2
DA:47,2
DA:48,2
DA:50,2
DA:52,2
DA:53,2
DA:54,2
DA:55,2
DA:56,2
DA:58,2
DA:61,2
DA:62,2
DA:67,10
DA:68,10
DA:69,10
DA:70,10
DA:71,10
DA:72,10
DA:73,10
DA:74,10
DA:75,10
DA:76,10
DA:77,10
DA:78,10
DA:80,10
DA:83,10
DA:84,10
DA:85,10
DA:87,10
DA:89,10
DA:90,10
DA:98,9
DA:99,9
DA:100,9
DA:101,9
DA:102,9
DA:103,9
DA:104,1
DA:105,8
DA:107,8
DA:108,8
DA:109,1
DA:110,7
DA:112,7
DA:113,1
DA:114,1
DA:115,1
DA:116,1
DA:117,1
DA:118,1
DA:119,1
DA:120,1
DA:121,1
DA:122,1
DA:124,1
DA:126,1
DA:128,6
DA:129,6
DA:130,6
DA:131,6
DA:132,6
DA:133,6
DA:134,6
DA:135,6
DA:136,6
DA:138,6
DA:140,6
DA:143,6
DA:144,9
DA:150,24
DA:152,24
DA:153,24
DA:154,24
DA:155,24
DA:156,24
DA:157,24
DA:158,24
DA:159,24
DA:160,24
DA:161,24
DA:164,24
DA:165,24
DA:166,45
DA:167,45
DA:168,45
DA:169,45
DA:170,24
DA:173,24
DA:175,24
DA:176,24
DA:177,34
DA:178,24
DA:179,24
DA:180,24
DA:182,7
DA:183,7
DA:184,7
DA:185,7
DA:186,7
DA:187,7
DA:189,7
DA:190,7
DA:191,6
DA:193,7
DA:194,7
DA:196,7
DA:197,7
DA:198,7
DA:199,7
DA:210,1
DA:211,1
DA:212,1
DA:213,1
DA:214,1
DA:215,1
DA:216,1
DA:217,1
DA:218,1
DA:219,1
DA:220,1
DA:221,1
DA:222,1
DA:223,1
DA:224,1
DA:225,1
DA:226,1
DA:227,1
DA:230,17
DA:231,16
DA:233,1
DA:236,8
DA:237,8
DA:238,8
DA:239,8
DA:240,8
DA:241,8
DA:242,8
DA:243,8
DA:244,8
DA:245,8
DA:246,8
DA:247,8
DA:248,8
DA:249,8
DA:250,8
DA:251,8
DA:252,8
DA:253,8
DA:254,8
DA:256,8
DA:257,8
DA:258,8
DA:261,1
DA:262,1
DA:263,1
DA:264,1
DA:265,1
DA:267,1
DA:269,1
DA:270,1
DA:271,1
DA:272,1
DA:273,1
DA:274,1
DA:276,1
DA:278,1
DA:279,1
DA:280,1
DA:281,1
DA:282,1
DA:285,1
DA:286,1
DA:287,1
DA:288,1
DA:289,1
DA:291,1
DA:293,1
DA:294,1
DA:296,1
DA:297,1
DA:298,1
DA:301,1
DA:302,1
DA:303,1
DA:304,1
DA:305,1
DA:308,1
DA:309,1
DA:310,1
DA:311,1
DA:312,1
DA:314,1
DA:316,1
DA:317,1
DA:318,1
DA:319,1
DA:321,1
DA:322,1
DA:323,1
DA:328,1
DA:329,1
DA:330,1
DA:331,0
DA:333,1
DA:336,1
DA:337,1
DA:338,1
DA:339,1
DA:340,1
DA:342,1
DA:343,1
DA:344,1
DA:345,1
DA:347,1
DA:349,1
DA:350,1
DA:351,1
DA:353,1
DA:354,1
DA:356,1
DA:357,1
DA:360,1
DA:361,1
DA:363,1
DA:364,1
DA:365,1
DA:367,1
DA:368,1
DA:369,1
DA:370,1
DA:372,1
DA:374,1
DA:375,1
DA:376,1
DA:377,1
DA:379,1
DA:381,1
DA:382,1
DA:383,1
DA:384,1
DA:387,1
DA:388,1
DA:389,1
DA:390,1
DA:391,1
DA:394,1
DA:395,1
DA:397,1
DA:398,1
DA:399,1
DA:401,1
DA:403,1
DA:404,1
DA:405,1
DA:406,1
DA:407,1
DA:409,1
DA:411,1
DA:412,1
DA:413,1
DA:415,1
DA:417,1
DA:418,1
DA:419,1
DA:420,0
DA:422,1
BRF:0
BRH:0
LF:297
LH:287
end_of_record
SF:D:\a\EntropIA\EntropIA\apps\desktop\src-tauri\src\nlp\mod.rs
FN:401,_RNCNvNtNtCs84fopnVJSSS_20entropia_desktop_lib3nlp5testss_64embedding_degradation_on_missing_item_does_not_block_other_items0B7_
FN:343,_RNCNvNtNtCs84fopnVJSSS_20entropia_desktop_lib3nlp5testss_66compute_embedding_job_degrades_and_non_embedding_jobs_keep_working0B7_
FN:360,_RNCNvNtNtCs84fopnVJSSS_20entropia_desktop_lib3nlp5testss_66compute_embedding_job_degrades_and_non_embedding_jobs_keep_workings0_0B7_
FN:351,_RNCNvNtNtCs84fopnVJSSS_20entropia_desktop_lib3nlp5testss_66compute_embedding_job_degrades_and_non_embedding_jobs_keep_workings_0B7_
FN:216,_RNvNtNtCs84fopnVJSSS_20entropia_desktop_lib3nlp5tests20setup_worker_test_db
FN:207,_RNvNtNtCs84fopnVJSSS_20entropia_desktop_lib3nlp5tests22run_job_without_events
FN:277,_RNvNtNtCs84fopnVJSSS_20entropia_desktop_lib3nlp5tests9seed_item
FN:368,_RNvNtNtCs84fopnVJSSS_20entropia_desktop_lib3nlp5testss_64embedding_degradation_on_missing_item_does_not_block_other_items
FN:299,_RNvNtNtCs84fopnVJSSS_20entropia_desktop_lib3nlp5testss_66compute_embedding_job_degrades_and_non_embedding_jobs_keep_working
FN:74,_RNCNvMNtCs84fopnVJSSS_20entropia_desktop_lib3nlpNtB4_8NlpQueue6submit0B6_
FN:65,_RNvMNtCs84fopnVJSSS_20entropia_desktop_lib3nlpNtB2_8NlpQueue3new
FN:71,_RNvMNtCs84fopnVJSSS_20entropia_desktop_lib3nlpNtB2_8NlpQueue6submit
FN:113,_RNCNCNvMNtCs84fopnVJSSS_20entropia_desktop_lib3nlpNtB6_8NlpQueue12start_worker00B8_
FN:138,_RNCNCNvMNtCs84fopnVJSSS_20entropia_desktop_lib3nlpNtB6_8NlpQueue12start_worker0s0_0B8_
FN:151,_RNCNCNvMNtCs84fopnVJSSS_20entropia_desktop_lib3nlpNtB6_8NlpQueue12start_worker0s1_0B8_
FN:127,_RNCNCNvMNtCs84fopnVJSSS_20entropia_desktop_lib3nlpNtB6_8NlpQueue12start_worker0s_0B8_
FN:86,_RNCNvMNtCs84fopnVJSSS_20entropia_desktop_lib3nlpNtB4_8NlpQueue12start_worker0B6_
FN:81,_RNvMNtCs84fopnVJSSS_20entropia_desktop_lib3nlpNtB2_8NlpQueue12start_worker
FN:191,_RNvNtCs84fopnVJSSS_20entropia_desktop_lib3nlp10emit_error
FN:181,_RNvNtCs84fopnVJSSS_20entropia_desktop_lib3nlp13emit_complete
FN:170,_RNvNtCs84fopnVJSSS_20entropia_desktop_lib3nlp13emit_progress
FN:113,_RNCNCNvMNtCs33ezxKbzRES_20entropia_desktop_lib3nlpNtB6_8NlpQueue12start_worker00B8_
FN:138,_RNCNCNvMNtCs33ezxKbzRES_20entropia_desktop_lib3nlpNtB6_8NlpQueue12start_worker0s0_0B8_
FN:151,_RNCNCNvMNtCs33ezxKbzRES_20entropia_desktop_lib3nlpNtB6_8NlpQueue12start_worker0s1_0B8_
FN:127,_RNCNCNvMNtCs33ezxKbzRES_20entropia_desktop_lib3nlpNtB6_8NlpQueue12start_worker0s_0B8_
FN:86,_RNCNvMNtCs33ezxKbzRES_20entropia_desktop_lib3nlpNtB4_8NlpQueue12start_worker0B6_
FN:74,_RNCNvMNtCs33ezxKbzRES_20entropia_desktop_lib3nlpNtB4_8NlpQueue6submit0B6_
FN:81,_RNvMNtCs33ezxKbzRES_20entropia_desktop_lib3nlpNtB2_8NlpQueue12start_worker
FN:65,_RNvMNtCs33ezxKbzRES_20entropia_desktop_lib3nlpNtB2_8NlpQueue3new
FN:71,_RNvMNtCs33ezxKbzRES_20entropia_desktop_lib3nlpNtB2_8NlpQueue6submit
FN:191,_RNvNtCs33ezxKbzRES_20entropia_desktop_lib3nlp10emit_error
FN:181,_RNvNtCs33ezxKbzRES_20entropia_desktop_lib3nlp13emit_complete
FN:170,_RNvNtCs33ezxKbzRES_20entropia_desktop_lib3nlp13emit_progress
FNDA:1,_RNCNvNtNtCs84fopnVJSSS_20entropia_desktop_lib3nlp5testss_64embedding_degradation_on_missing_item_does_not_block_other_items0B7_
FNDA:1,_RNCNvNtNtCs84fopnVJSSS_20entropia_desktop_lib3nlp5testss_66compute_embedding_job_degrades_and_non_embedding_jobs_keep_working0B7_
FNDA:1,_RNCNvNtNtCs84fopnVJSSS_20entropia_desktop_lib3nlp5testss_66compute_embedding_job_degrades_and_non_embedding_jobs_keep_workings0_0B7_
FNDA:1,_RNCNvNtNtCs84fopnVJSSS_20entropia_desktop_lib3nlp5testss_66compute_embedding_job_degrades_and_non_embedding_jobs_keep_workings_0B7_
FNDA:2,_RNvNtNtCs84fopnVJSSS_20entropia_desktop_lib3nlp5tests20setup_worker_test_db
FNDA:6,_RNvNtNtCs84fopnVJSSS_20entropia_desktop_lib3nlp5tests22run_job_without_events
FNDA:2,_RNvNtNtCs84fopnVJSSS_20entropia_desktop_lib3nlp5tests9seed_item
FNDA:1,_RNvNtNtCs84fopnVJSSS_20entropia_desktop_lib3nlp5testss_64embedding_degradation_on_missing_item_does_not_block_other_items
FNDA:1,_RNvNtNtCs84fopnVJSSS_20entropia_desktop_lib3nlp5testss_66compute_embedding_job_degrades_and_non_embedding_jobs_keep_working
FNDA:1,_RNCNvMNtCs84fopnVJSSS_20entropia_desktop_lib3nlpNtB4_8NlpQueue6submit0B6_
FNDA:3,_RNvMNtCs84fopnVJSSS_20entropia_desktop_lib3nlpNtB2_8NlpQueue3new
FNDA:69,_RNvMNtCs84fopnVJSSS_20entropia_desktop_lib3nlpNtB2_8NlpQueue6submit
FNDA:0,_RNCNCNvMNtCs84fopnVJSSS_20entropia_desktop_lib3nlpNtB6_8NlpQueue12start_worker00B8_
FNDA:0,_RNCNCNvMNtCs84fopnVJSSS_20entropia_desktop_lib3nlpNtB6_8NlpQueue12start_worker0s0_0B8_
FNDA:0,_RNCNCNvMNtCs84fopnVJSSS_20entropia_desktop_lib3nlpNtB6_8NlpQueue12start_worker0s1_0B8_
FNDA:0,_RNCNCNvMNtCs84fopnVJSSS_20entropia_desktop_lib3nlpNtB6_8NlpQueue12start_worker0s_0B8_
FNDA:0,_RNCNvMNtCs84fopnVJSSS_20entropia_desktop_lib3nlpNtB4_8NlpQueue12start_worker0B6_
FNDA:0,_RNvMNtCs84fopnVJSSS_20entropia_desktop_lib3nlpNtB2_8NlpQueue12start_worker
FNDA:0,_RNvNtCs84fopnVJSSS_20entropia_desktop_lib3nlp10emit_error
FNDA:0,_RNvNtCs84fopnVJSSS_20entropia_desktop_lib3nlp13emit_complete
FNDA:0,_RNvNtCs84fopnVJSSS_20entropia_desktop_lib3nlp13emit_progress
FNDA:0,_RNCNCNvMNtCs33ezxKbzRES_20entropia_desktop_lib3nlpNtB6_8NlpQueue12start_worker00B8_
FNDA:0,_RNCNCNvMNtCs33ezxKbzRES_20entropia_desktop_lib3nlpNtB6_8NlpQueue12start_worker0s0_0B8_
FNDA:0,_RNCNCNvMNtCs33ezxKbzRES_20entropia_desktop_lib3nlpNtB6_8NlpQueue12start_worker0s1_0B8_
FNDA:0,_RNCNCNvMNtCs33ezxKbzRES_20entropia_desktop_lib3nlpNtB6_8NlpQueue12start_worker0s_0B8_
FNDA:0,_RNCNvMNtCs33ezxKbzRES_20entropia_desktop_lib3nlpNtB4_8NlpQueue12start_worker0B6_
FNDA:0,_RNCNvMNtCs33ezxKbzRES_20entropia_desktop_lib3nlpNtB4_8NlpQueue6submit0B6_
FNDA:0,_RNvMNtCs33ezxKbzRES_20entropia_desktop_lib3nlpNtB2_8NlpQueue12start_worker
FNDA:0,_RNvMNtCs33ezxKbzRES_20entropia_desktop_lib3nlpNtB2_8NlpQueue3new
FNDA:0,_RNvMNtCs33ezxKbzRES_20entropia_desktop_lib3nlpNtB2_8NlpQueue6submit
FNDA:0,_RNvNtCs33ezxKbzRES_20entropia_desktop_lib3nlp10emit_error
FNDA:0,_RNvNtCs33ezxKbzRES_20entropia_desktop_lib3nlp13emit_complete
FNDA:0,_RNvNtCs33ezxKbzRES_20entropia_desktop_lib3nlp13emit_progress
FNF:21
FNH:12
DA:65,3
DA:66,3
DA:67,3
DA:68,3
DA:71,69
DA:72,69
DA:73,69
DA:74,69
DA:75,69
DA:81,0
DA:82,0
DA:83,0
DA:84,0
DA:85,0
DA:86,0
DA:88,0
DA:89,0
DA:90,0
DA:91,0
DA:92,0
DA:101,0
DA:103,0
DA:104,0
DA:105,0
DA:109,0
DA:110,0
DA:111,0
DA:112,0
DA:113,0
DA:115,0
DA:116,0
DA:117,0
DA:118,0
DA:119,0
DA:120,0
DA:121,0
DA:122,0
DA:125,0
DA:126,0
DA:127,0
DA:128,0
DA:129,0
DA:130,0
DA:131,0
DA:132,0
DA:133,0
DA:136,0
DA:137,0
DA:138,0
DA:139,0
DA:140,0
DA:141,0
DA:142,0
DA:143,0
DA:144,0
DA:145,0
DA:146,0
DA:149,0
DA:150,0
DA:151,0
DA:152,0
DA:153,0
DA:154,0
DA:155,0
DA:156,0
DA:157,0
DA:158,0
DA:159,0
DA:164,0
DA:165,0
DA:170,0
DA:171,0
DA:172,0
DA:173,0
DA:174,0
DA:175,0
DA:176,0
DA:177,0
DA:178,0
DA:179,0
DA:181,0
DA:182,0
DA:183,0
DA:184,0
DA:185,0
DA:186,0
DA:187,0
DA:188,0
DA:189,0
DA:191,0
DA:192,0
DA:193,0
DA:194,0
DA:195,0
DA:196,0
DA:197,0
DA:198,0
DA:199,0
DA:200,0
DA:207,6
DA:208,6
DA:209,2
DA:210,2
DA:211,1
DA:212,1
DA:214,6
DA:216,2
DA:217,2
DA:219,2
DA:220,2
DA:221,2
DA:222,2
DA:223,2
DA:224,2
DA:225,2
DA:226,2
DA:227,2
DA:228,2
DA:229,2
DA:230,2
DA:231,2
DA:232,2
DA:233,2
DA:234,2
DA:235,2
DA:236,2
DA:237,2
DA:238,2
DA:239,2
DA:240,2
DA:241,2
DA:242,2
DA:243,2
DA:244,2
DA:245,2
DA:246,2
DA:247,2
DA:248,2
DA:249,2
DA:250,2
DA:251,2
DA:252,2
DA:253,2
DA:254,2
DA:255,2
DA:256,2
DA:257,2
DA:258,2
DA:259,2
DA:260,2
DA:261,2
DA:262,2
DA:263,2
DA:264,2
DA:265,2
DA:266,2
DA:267,2
DA:268,2
DA:269,2
DA:270,2
DA:272,2
DA:274,2
DA:275,2
DA:277,2
DA:278,2
DA:279,2
DA:280,2
DA:282,2
DA:284,2
DA:285,2
DA:286,2
DA:288,2
DA:290,2
DA:291,2
DA:292,2
DA:294,2
DA:295,2
DA:299,1
DA:300,1
DA:301,1
DA:302,1
DA:303,1
DA:304,1
DA:305,1
DA:306,1
DA:309,1
DA:310,1
DA:311,1
DA:312,1
DA:313,1
DA:315,1
DA:316,1
DA:317,1
DA:318,1
DA:319,1
DA:321,1
DA:322,1
DA:323,1
DA:324,1
DA:325,1
DA:327,1
DA:328,1
DA:329,1
DA:330,1
DA:331,1
DA:334,1
DA:335,1
DA:336,1
DA:337,1
DA:338,1
DA:339,0
DA:342,1
DA:343,1
DA:344,1
DA:345,1
DA:347,1
DA:348,1
DA:349,1
DA:350,1
DA:351,1
DA:353,1
DA:354,1
DA:356,1
DA:357,1
DA:358,1
DA:359,1
DA:360,1
DA:362,1
DA:363,1
DA:364,1
DA:368,1
DA:369,1
DA:370,1
DA:371,1
DA:372,1
DA:373,1
DA:374,1
DA:375,1
DA:378,1
DA:379,1
DA:380,1
DA:381,1
DA:382,1
DA:384,1
DA:385,1
DA:386,1
DA:387,1
DA:388,1
DA:391,1
DA:392,1
DA:393,0
DA:395,1
DA:396,1
DA:397,0
DA:400,1
DA:401,1
DA:402,1
DA:403,1
DA:404,1
BRF:0
BRH:0
LF:267
LH:169
end_of_record
SF:D:\a\EntropIA\EntropIA\apps\desktop\src-tauri\src\nlp\ner.rs
FN:241,_RNCNvNtNtNtCs84fopnVJSSS_20entropia_desktop_lib3nlp3ner5testss_30fixture_colonial_detects_place0B9_
FN:250,_RNCNvNtNtNtCs84fopnVJSSS_20entropia_desktop_lib3nlp3ner5testss_30fixture_colonial_detects_places0_0B9_
FN:254,_RNCNvNtNtNtCs84fopnVJSSS_20entropia_desktop_lib3nlp3ner5testss_30fixture_colonial_detects_places1_0B9_
FN:248,_RNCNvNtNtNtCs84fopnVJSSS_20entropia_desktop_lib3nlp3ner5testss_30fixture_colonial_detects_places_0B9_
FN:223,_RNCNvNtNtNtCs84fopnVJSSS_20entropia_desktop_lib3nlp3ner5testss_31fixture_colonial_detects_person0B9_
FN:231,_RNCNvNtNtNtCs84fopnVJSSS_20entropia_desktop_lib3nlp3ner5testss_31fixture_colonial_detects_persons0_0B9_
FN:229,_RNCNvNtNtNtCs84fopnVJSSS_20entropia_desktop_lib3nlp3ner5testss_31fixture_colonial_detects_persons_0B9_
FN:296,_RNCNvNtNtNtCs84fopnVJSSS_20entropia_desktop_lib3nlp3ner5testss_36fixture_colonial_detects_institution0B9_
FN:282,_RNCNvNtNtNtCs84fopnVJSSS_20entropia_desktop_lib3nlp3ner5testss_37fixture_colonial_detects_date_numeric0B9_
FN:286,_RNCNvNtNtNtCs84fopnVJSSS_20entropia_desktop_lib3nlp3ner5testss_37fixture_colonial_detects_date_numerics0_0B9_
FN:284,_RNCNvNtNtNtCs84fopnVJSSS_20entropia_desktop_lib3nlp3ner5testss_37fixture_colonial_detects_date_numerics_0B9_
FN:264,_RNCNvNtNtNtCs84fopnVJSSS_20entropia_desktop_lib3nlp3ner5testss_37fixture_colonial_detects_date_written0B9_
FN:272,_RNCNvNtNtNtCs84fopnVJSSS_20entropia_desktop_lib3nlp3ner5testss_37fixture_colonial_detects_date_writtens0_0B9_
FN:270,_RNCNvNtNtNtCs84fopnVJSSS_20entropia_desktop_lib3nlp3ner5testss_37fixture_colonial_detects_date_writtens_0B9_
FN:373,_RNCNvNtNtNtCs84fopnVJSSS_20entropia_desktop_lib3nlp3ner5testss_42detects_colonial_prepositional_place_forms0B9_
FN:377,_RNCNvNtNtNtCs84fopnVJSSS_20entropia_desktop_lib3nlp3ner5testss_42detects_colonial_prepositional_place_formss0_0B9_
FN:378,_RNCNvNtNtNtCs84fopnVJSSS_20entropia_desktop_lib3nlp3ner5testss_42detects_colonial_prepositional_place_formss1_0B9_
FN:379,_RNCNvNtNtNtCs84fopnVJSSS_20entropia_desktop_lib3nlp3ner5testss_42detects_colonial_prepositional_place_formss2_0B9_
FN:387,_RNCNvNtNtNtCs84fopnVJSSS_20entropia_desktop_lib3nlp3ner5testss_44avoids_false_positive_for_non_toponym_phrase0B9_
FN:342,_RNCNvNtNtNtCs84fopnVJSSS_20entropia_desktop_lib3nlp3ner5testss_45fixture_administrative_detects_multiple_dates0B9_
FN:307,_RNCNvNtNtNtCs84fopnVJSSS_20entropia_desktop_lib3nlp3ner5testss_46fixture_colonial_detects_all_four_entity_types0B9_
FN:309,_RNCNvNtNtNtCs84fopnVJSSS_20entropia_desktop_lib3nlp3ner5testss_46fixture_colonial_detects_all_four_entity_typess0_0B9_
FN:312,_RNCNvNtNtNtCs84fopnVJSSS_20entropia_desktop_lib3nlp3ner5testss_46fixture_colonial_detects_all_four_entity_typess1_0B9_
FN:308,_RNCNvNtNtNtCs84fopnVJSSS_20entropia_desktop_lib3nlp3ner5testss_46fixture_colonial_detects_all_four_entity_typess_0B9_
FN:324,_RNCNvNtNtNtCs84fopnVJSSS_20entropia_desktop_lib3nlp3ner5testss_46fixture_ecclesiastical_detects_fray_and_doctor0B9_
FN:332,_RNCNvNtNtNtCs84fopnVJSSS_20entropia_desktop_lib3nlp3ner5testss_46fixture_ecclesiastical_detects_fray_and_doctors0_0B9_
FN:330,_RNCNvNtNtNtCs84fopnVJSSS_20entropia_desktop_lib3nlp3ner5testss_46fixture_ecclesiastical_detects_fray_and_doctors_0B9_
FN:352,_RNvNtNtNtCs84fopnVJSSS_20entropia_desktop_lib3nlp3ner5testss_30empty_text_returns_no_entities
FN:237,_RNvNtNtNtCs84fopnVJSSS_20entropia_desktop_lib3nlp3ner5testss_30fixture_colonial_detects_place
FN:358,_RNvNtNtNtCs84fopnVJSSS_20entropia_desktop_lib3nlp3ner5testss_31entities_sorted_by_start_offset
FN:219,_RNvNtNtNtCs84fopnVJSSS_20entropia_desktop_lib3nlp3ner5testss_31fixture_colonial_detects_person
FN:292,_RNvNtNtNtCs84fopnVJSSS_20entropia_desktop_lib3nlp3ner5testss_36fixture_colonial_detects_institution
FN:278,_RNvNtNtNtCs84fopnVJSSS_20entropia_desktop_lib3nlp3ner5testss_37fixture_colonial_detects_date_numeric
FN:260,_RNvNtNtNtCs84fopnVJSSS_20entropia_desktop_lib3nlp3ner5testss_37fixture_colonial_detects_date_written
FN:369,_RNvNtNtNtCs84fopnVJSSS_20entropia_desktop_lib3nlp3ner5testss_42detects_colonial_prepositional_place_forms
FN:383,_RNvNtNtNtCs84fopnVJSSS_20entropia_desktop_lib3nlp3ner5testss_44avoids_false_positive_for_non_toponym_phrase
FN:338,_RNvNtNtNtCs84fopnVJSSS_20entropia_desktop_lib3nlp3ner5testss_45fixture_administrative_detects_multiple_dates
FN:305,_RNvNtNtNtCs84fopnVJSSS_20entropia_desktop_lib3nlp3ner5testss_46fixture_colonial_detects_all_four_entity_types
FN:320,_RNvNtNtNtCs84fopnVJSSS_20entropia_desktop_lib3nlp3ner5testss_46fixture_ecclesiastical_detects_fray_and_doctor
FN:65,_RNCNvNtNtCs84fopnVJSSS_20entropia_desktop_lib3nlp3ner14INSTITUTION_RE0B7_
FN:61,_RNCNvNtNtCs84fopnVJSSS_20entropia_desktop_lib3nlp3ner15DATE_NUMERIC_RE0B7_
FN:56,_RNCNvNtNtCs84fopnVJSSS_20entropia_desktop_lib3nlp3ner15DATE_WRITTEN_RE0B7_
FN:111,_RNCNvNtNtCs84fopnVJSSS_20entropia_desktop_lib3nlp3ner17extract_and_store0B7_
FN:144,_RNCNvNtNtCs84fopnVJSSS_20entropia_desktop_lib3nlp3ner17extract_and_stores0_0B7_
FN:124,_RNCNvNtNtCs84fopnVJSSS_20entropia_desktop_lib3nlp3ner17extract_and_stores_0B7_
FN:47,_RNCNvNtNtCs84fopnVJSSS_20entropia_desktop_lib3nlp3ner8PLACE_RE0B7_
FN:40,_RNCNvNtNtCs84fopnVJSSS_20entropia_desktop_lib3nlp3ner9PERSON_RE0B7_
FN:28,_RNvMNtNtCs84fopnVJSSS_20entropia_desktop_lib3nlp3nerNtB2_10EntityType6as_str
FN:181,_RNvNtNtCs84fopnVJSSS_20entropia_desktop_lib3nlp3ner10now_millis
FN:152,_RNvNtNtCs84fopnVJSSS_20entropia_desktop_lib3nlp3ner15collect_matches
FN:78,_RNvNtNtCs84fopnVJSSS_20entropia_desktop_lib3nlp3ner16extract_entities
FN:98,_RNvNtNtCs84fopnVJSSS_20entropia_desktop_lib3nlp3ner17extract_and_store
FN:163,_RNvNtNtCs84fopnVJSSS_20entropia_desktop_lib3nlp3ner7uuid_v4
FN:65,_RNCNvNtNtCs33ezxKbzRES_20entropia_desktop_lib3nlp3ner14INSTITUTION_RE0B7_
FN:61,_RNCNvNtNtCs33ezxKbzRES_20entropia_desktop_lib3nlp3ner15DATE_NUMERIC_RE0B7_
FN:56,_RNCNvNtNtCs33ezxKbzRES_20entropia_desktop_lib3nlp3ner15DATE_WRITTEN_RE0B7_
FN:111,_RNCNvNtNtCs33ezxKbzRES_20entropia_desktop_lib3nlp3ner17extract_and_store0B7_
FN:144,_RNCNvNtNtCs33ezxKbzRES_20entropia_desktop_lib3nlp3ner17extract_and_stores0_0B7_
FN:124,_RNCNvNtNtCs33ezxKbzRES_20entropia_desktop_lib3nlp3ner17extract_and_stores_0B7_
FN:47,_RNCNvNtNtCs33ezxKbzRES_20entropia_desktop_lib3nlp3ner8PLACE_RE0B7_
FN:40,_RNCNvNtNtCs33ezxKbzRES_20entropia_desktop_lib3nlp3ner9PERSON_RE0B7_
FN:28,_RNvMNtNtCs33ezxKbzRES_20entropia_desktop_lib3nlp3nerNtB2_10EntityType6as_str
FN:181,_RNvNtNtCs33ezxKbzRES_20entropia_desktop_lib3nlp3ner10now_millis
FN:152,_RNvNtNtCs33ezxKbzRES_20entropia_desktop_lib3nlp3ner15collect_matches
FN:78,_RNvNtNtCs33ezxKbzRES_20entropia_desktop_lib3nlp3ner16extract_entities
FN:98,_RNvNtNtCs33ezxKbzRES_20entropia_desktop_lib3nlp3ner17extract_and_store
FN:163,_RNvNtNtCs33ezxKbzRES_20entropia_desktop_lib3nlp3ner7uuid_v4
FNDA:10,_RNCNvNtNtNtCs84fopnVJSSS_20entropia_desktop_lib3nlp3ner5testss_30fixture_colonial_detects_place0B9_
FNDA:1,_RNCNvNtNtNtCs84fopnVJSSS_20entropia_desktop_lib3nlp3ner5testss_30fixture_colonial_detects_places0_0B9_
FNDA:2,_RNCNvNtNtNtCs84fopnVJSSS_20entropia_desktop_lib3nlp3ner5testss_30fixture_colonial_detects_places1_0B9_
FNDA:2,_RNCNvNtNtNtCs84fopnVJSSS_20entropia_desktop_lib3nlp3ner5testss_30fixture_colonial_detects_places_0B9_
FNDA:10,_RNCNvNtNtNtCs84fopnVJSSS_20entropia_desktop_lib3nlp3ner5testss_31fixture_colonial_detects_person0B9_
FNDA:1,_RNCNvNtNtNtCs84fopnVJSSS_20entropia_desktop_lib3nlp3ner5testss_31fixture_colonial_detects_persons0_0B9_
FNDA:2,_RNCNvNtNtNtCs84fopnVJSSS_20entropia_desktop_lib3nlp3ner5testss_31fixture_colonial_detects_persons_0B9_
FNDA:10,_RNCNvNtNtNtCs84fopnVJSSS_20entropia_desktop_lib3nlp3ner5testss_36fixture_colonial_detects_institution0B9_
FNDA:10,_RNCNvNtNtNtCs84fopnVJSSS_20entropia_desktop_lib3nlp3ner5testss_37fixture_colonial_detects_date_numeric0B9_
FNDA:2,_RNCNvNtNtNtCs84fopnVJSSS_20entropia_desktop_lib3nlp3ner5testss_37fixture_colonial_detects_date_numerics0_0B9_
FNDA:2,_RNCNvNtNtNtCs84fopnVJSSS_20entropia_desktop_lib3nlp3ner5testss_37fixture_colonial_detects_date_numerics_0B9_
FNDA:10,_RNCNvNtNtNtCs84fopnVJSSS_20entropia_desktop_lib3nlp3ner5testss_37fixture_colonial_detects_date_written0B9_
FNDA:1,_RNCNvNtNtNtCs84fopnVJSSS_20entropia_desktop_lib3nlp3ner5testss_37fixture_colonial_detects_date_writtens0_0B9_
FNDA:2,_RNCNvNtNtNtCs84fopnVJSSS_20entropia_desktop_lib3nlp3ner5testss_37fixture_colonial_detects_date_writtens_0B9_
FNDA:3,_RNCNvNtNtNtCs84fopnVJSSS_20entropia_desktop_lib3nlp3ner5testss_42detects_colonial_prepositional_place_forms0B9_
FNDA:1,_RNCNvNtNtNtCs84fopnVJSSS_20entropia_desktop_lib3nlp3ner5testss_42detects_colonial_prepositional_place_formss0_0B9_
FNDA:2,_RNCNvNtNtNtCs84fopnVJSSS_20entropia_desktop_lib3nlp3ner5testss_42detects_colonial_prepositional_place_formss1_0B9_
FNDA:3,_RNCNvNtNtNtCs84fopnVJSSS_20entropia_desktop_lib3nlp3ner5testss_42detects_colonial_prepositional_place_formss2_0B9_
FNDA:0,_RNCNvNtNtNtCs84fopnVJSSS_20entropia_desktop_lib3nlp3ner5testss_44avoids_false_positive_for_non_toponym_phrase0B9_
FNDA:7,_RNCNvNtNtNtCs84fopnVJSSS_20entropia_desktop_lib3nlp3ner5testss_45fixture_administrative_detects_multiple_dates0B9_
FNDA:3,_RNCNvNtNtNtCs84fopnVJSSS_20entropia_desktop_lib3nlp3ner5testss_46fixture_colonial_detects_all_four_entity_types0B9_
FNDA:2,_RNCNvNtNtNtCs84fopnVJSSS_20entropia_desktop_lib3nlp3ner5testss_46fixture_colonial_detects_all_four_entity_typess0_0B9_
FNDA:4,_RNCNvNtNtNtCs84fopnVJSSS_20entropia_desktop_lib3nlp3ner5testss_46fixture_colonial_detects_all_four_entity_typess1_0B9_
FNDA:1,_RNCNvNtNtNtCs84fopnVJSSS_20entropia_desktop_lib3nlp3ner5testss_46fixture_colonial_detects_all_four_entity_typess_0B9_
FNDA:6,_RNCNvNtNtNtCs84fopnVJSSS_20entropia_desktop_lib3nlp3ner5testss_46fixture_ecclesiastical_detects_fray_and_doctor0B9_
FNDA:1,_RNCNvNtNtNtCs84fopnVJSSS_20entropia_desktop_lib3nlp3ner5testss_46fixture_ecclesiastical_detects_fray_and_doctors0_0B9_
FNDA:2,_RNCNvNtNtNtCs84fopnVJSSS_20entropia_desktop_lib3nlp3ner5testss_46fixture_ecclesiastical_detects_fray_and_doctors_0B9_
FNDA:1,_RNvNtNtNtCs84fopnVJSSS_20entropia_desktop_lib3nlp3ner5testss_30empty_text_returns_no_entities
FNDA:1,_RNvNtNtNtCs84fopnVJSSS_20entropia_desktop_lib3nlp3ner5testss_30fixture_colonial_detects_place
FNDA:1,_RNvNtNtNtCs84fopnVJSSS_20entropia_desktop_lib3nlp3ner5testss_31entities_sorted_by_start_offset
FNDA:1,_RNvNtNtNtCs84fopnVJSSS_20entropia_desktop_lib3nlp3ner5testss_31fixture_colonial_detects_person
FNDA:1,_RNvNtNtNtCs84fopnVJSSS_20entropia_desktop_lib3nlp3ner5testss_36fixture_colonial_detects_institution
FNDA:1,_RNvNtNtNtCs84fopnVJSSS_20entropia_desktop_lib3nlp3ner5testss_37fixture_colonial_detects_date_numeric
FNDA:1,_RNvNtNtNtCs84fopnVJSSS_20entropia_desktop_lib3nlp3ner5testss_37fixture_colonial_detects_date_written
FNDA:1,_RNvNtNtNtCs84fopnVJSSS_20entropia_desktop_lib3nlp3ner5testss_42detects_colonial_prepositional_place_forms
FNDA:1,_RNvNtNtNtCs84fopnVJSSS_20entropia_desktop_lib3nlp3ner5testss_44avoids_false_positive_for_non_toponym_phrase
FNDA:1,_RNvNtNtNtCs84fopnVJSSS_20entropia_desktop_lib3nlp3ner5testss_45fixture_administrative_detects_multiple_dates
FNDA:1,_RNvNtNtNtCs84fopnVJSSS_20entropia_desktop_lib3nlp3ner5testss_46fixture_colonial_detects_all_four_entity_types
FNDA:1,_RNvNtNtNtCs84fopnVJSSS_20entropia_desktop_lib3nlp3ner5testss_46fixture_ecclesiastical_detects_fray_and_doctor
FNDA:1,_RNCNvNtNtCs84fopnVJSSS_20entropia_desktop_lib3nlp3ner14INSTITUTION_RE0B7_
FNDA:1,_RNCNvNtNtCs84fopnVJSSS_20entropia_desktop_lib3nlp3ner15DATE_NUMERIC_RE0B7_
FNDA:1,_RNCNvNtNtCs84fopnVJSSS_20entropia_desktop_lib3nlp3ner15DATE_WRITTEN_RE0B7_
FNDA:1,_RNCNvNtNtCs84fopnVJSSS_20entropia_desktop_lib3nlp3ner17extract_and_store0B7_
FNDA:0,_RNCNvNtNtCs84fopnVJSSS_20entropia_desktop_lib3nlp3ner17extract_and_stores0_0B7_
FNDA:0,_RNCNvNtNtCs84fopnVJSSS_20entropia_desktop_lib3nlp3ner17extract_and_stores_0B7_
FNDA:1,_RNCNvNtNtCs84fopnVJSSS_20entropia_desktop_lib3nlp3ner8PLACE_RE0B7_
FNDA:1,_RNCNvNtNtCs84fopnVJSSS_20entropia_desktop_lib3nlp3ner9PERSON_RE0B7_
FNDA:2,_RNvMNtNtCs84fopnVJSSS_20entropia_desktop_lib3nlp3nerNtB2_10EntityType6as_str
FNDA:2,_RNvNtNtCs84fopnVJSSS_20entropia_desktop_lib3nlp3ner10now_millis
FNDA:65,_RNvNtNtCs84fopnVJSSS_20entropia_desktop_lib3nlp3ner15collect_matches
FNDA:13,_RNvNtNtCs84fopnVJSSS_20entropia_desktop_lib3nlp3ner16extract_entities
FNDA:1,_RNvNtNtCs84fopnVJSSS_20entropia_desktop_lib3nlp3ner17extract_and_store
FNDA:2,_RNvNtNtCs84fopnVJSSS_20entropia_desktop_lib3nlp3ner7uuid_v4
FNDA:0,_RNCNvNtNtCs33ezxKbzRES_20entropia_desktop_lib3nlp3ner14INSTITUTION_RE0B7_
FNDA:0,_RNCNvNtNtCs33ezxKbzRES_20entropia_desktop_lib3nlp3ner15DATE_NUMERIC_RE0B7_
FNDA:0,_RNCNvNtNtCs33ezxKbzRES_20entropia_desktop_lib3nlp3ner15DATE_WRITTEN_RE0B7_
FNDA:0,_RNCNvNtNtCs33ezxKbzRES_20entropia_desktop_lib3nlp3ner17extract_and_store0B7_
FNDA:0,_RNCNvNtNtCs33ezxKbzRES_20entropia_desktop_lib3nlp3ner17extract_and_stores0_0B7_
FNDA:0,_RNCNvNtNtCs33ezxKbzRES_20entropia_desktop_lib3nlp3ner17extract_and_stores_0B7_
FNDA:0,_RNCNvNtNtCs33ezxKbzRES_20entropia_desktop_lib3nlp3ner8PLACE_RE0B7_
FNDA:0,_RNCNvNtNtCs33ezxKbzRES_20entropia_desktop_lib3nlp3ner9PERSON_RE0B7_
FNDA:0,_RNvMNtNtCs33ezxKbzRES_20entropia_desktop_lib3nlp3nerNtB2_10EntityType6as_str
FNDA:0,_RNvNtNtCs33ezxKbzRES_20entropia_desktop_lib3nlp3ner10now_millis
FNDA:0,_RNvNtNtCs33ezxKbzRES_20entropia_desktop_lib3nlp3ner15collect_matches
FNDA:0,_RNvNtNtCs33ezxKbzRES_20entropia_desktop_lib3nlp3ner16extract_entities
FNDA:0,_RNvNtNtCs33ezxKbzRES_20entropia_desktop_lib3nlp3ner17extract_and_store
FNDA:0,_RNvNtNtCs33ezxKbzRES_20entropia_desktop_lib3nlp3ner7uuid_v4
FNF:53
FNH:50
DA:28,2
DA:29,2
DA:30,1
DA:31,1
DA:32,0
DA:33,0
DA:35,2
DA:40,1
DA:41,1
DA:42,1
DA:44,1
DA:45,1
DA:47,1
DA:52,1
DA:53,1
DA:54,1
DA:56,1
DA:57,1
DA:58,1
DA:59,1
DA:61,1
DA:62,1
DA:63,1
DA:65,1
DA:66,1
DA:67,1
DA:69,1
DA:70,1
DA:78,13
DA:79,13
DA:81,13
DA:82,13
DA:83,13
DA:84,13
DA:85,13
DA:86,13
DA:87,13
DA:88,13
DA:89,13
DA:93,13
DA:94,13
DA:95,13
DA:98,1
DA:100,1
DA:101,1
DA:102,1
DA:103,1
DA:104,1
DA:105,1
DA:106,1
DA:107,1
DA:108,1
DA:109,1
DA:110,1
DA:111,1
DA:113,1
DA:115,1
DA:116,1
DA:117,0
DA:120,1
DA:123,1
DA:124,1
DA:126,3
DA:127,2
DA:128,2
DA:129,2
DA:130,2
DA:131,2
DA:132,2
DA:133,2
DA:136,2
DA:138,2
DA:139,2
DA:141,2
DA:144,2
DA:147,1
DA:148,1
DA:152,65
DA:153,88
DA:154,88
DA:155,88
DA:156,88
DA:157,88
DA:158,88
DA:159,88
DA:160,88
DA:161,65
DA:163,2
DA:167,2
DA:168,2
DA:169,2
DA:170,2
DA:171,2
DA:172,2
DA:173,2
DA:174,2
DA:175,2
DA:176,2
DA:179,2
DA:181,2
DA:183,2
DA:184,2
DA:185,2
DA:186,2
DA:187,2
DA:219,1
DA:220,1
DA:221,1
DA:222,1
DA:223,10
DA:224,1
DA:225,1
DA:226,1
DA:227,0
DA:229,2
DA:230,1
DA:231,1
DA:232,0
DA:234,1
DA:237,1
DA:238,1
DA:239,1
DA:240,1
DA:241,10
DA:242,1
DA:243,1
DA:244,1
DA:245,0
DA:248,2
DA:249,1
DA:250,1
DA:251,0
DA:253,1
DA:254,2
DA:255,0
DA:257,1
DA:260,1
DA:261,1
DA:262,1
DA:263,1
DA:264,10
DA:265,1
DA:266,1
DA:267,1
DA:268,0
DA:270,2
DA:271,1
DA:272,1
DA:273,0
DA:275,1
DA:278,1
DA:279,1
DA:280,1
DA:281,1
DA:282,10
DA:283,1
DA:284,2
DA:285,1
DA:286,2
DA:287,0
DA:289,1
DA:292,1
DA:293,1
DA:294,1
DA:295,1
DA:296,10
DA:297,1
DA:298,1
DA:299,1
DA:300,0
DA:302,1
DA:305,1
DA:306,1
DA:307,3
DA:308,1
DA:309,2
DA:310,1
DA:311,1
DA:312,4
DA:313,1
DA:314,1
DA:315,1
DA:316,1
DA:317,1
DA:320,1
DA:321,1
DA:322,1
DA:323,1
DA:324,6
DA:325,1
DA:326,1
DA:327,1
DA:328,0
DA:330,2
DA:331,1
DA:332,1
DA:333,0
DA:335,1
DA:338,1
DA:339,1
DA:340,1
DA:341,1
DA:342,7
DA:343,1
DA:344,1
DA:345,1
DA:346,0
DA:347,0
DA:349,1
DA:352,1
DA:353,1
DA:354,1
DA:355,1
DA:358,1
DA:359,1
DA:360,9
DA:361,9
DA:362,9
DA:363,0
DA:366,1
DA:369,1
DA:370,1
DA:371,1
DA:372,1
DA:373,3
DA:374,1
DA:375,1
DA:377,1
DA:378,2
DA:379,3
DA:380,1
DA:383,1
DA:384,1
DA:385,1
DA:386,1
DA:387,1
DA:388,1
DA:389,1
DA:391,1
DA:392,1
BRF:0
BRH:0
LF:269
LH:249
end_of_record
SF:D:\a\EntropIA\EntropIA\apps\desktop\src-tauri\src\nlp\triples.rs
FN:21,_RNCNvNtNtCs84fopnVJSSS_20entropia_desktop_lib3nlp7triples15extract_triples0B7_
FN:57,_RNCNvNtNtCs84fopnVJSSS_20entropia_desktop_lib3nlp7triples17extract_and_store0B7_
FN:73,_RNCNvNtNtCs84fopnVJSSS_20entropia_desktop_lib3nlp7triples17extract_and_stores0_0B7_
FN:90,_RNCNvNtNtCs84fopnVJSSS_20entropia_desktop_lib3nlp7triples17extract_and_stores1_0B7_
FN:65,_RNCNvNtNtCs84fopnVJSSS_20entropia_desktop_lib3nlp7triples17extract_and_stores_0B7_
FN:12,_RNCNvNtNtCs84fopnVJSSS_20entropia_desktop_lib3nlp7triples9TRIPLE_RE0B7_
FN:112,_RNvNtNtCs84fopnVJSSS_20entropia_desktop_lib3nlp7triples10now_millis
FN:19,_RNvNtNtCs84fopnVJSSS_20entropia_desktop_lib3nlp7triples15extract_triples
FN:45,_RNvNtNtCs84fopnVJSSS_20entropia_desktop_lib3nlp7triples17extract_and_store
FN:96,_RNvNtNtCs84fopnVJSSS_20entropia_desktop_lib3nlp7triples7uuid_v4
FN:210,_RNCNvNtNtNtCs84fopnVJSSS_20entropia_desktop_lib3nlp7triples5testss_72extract_and_store_returns_ok_and_keeps_item_without_extracted_text_empty0B9_
FN:246,_RNCNvNtNtNtCs84fopnVJSSS_20entropia_desktop_lib3nlp7triples5testss_76extract_and_store_reextract_non_empty_replaces_previous_non_empty_result_set0B9_
FN:279,_RNCNvNtNtNtCs84fopnVJSSS_20entropia_desktop_lib3nlp7triples5testss_76extract_and_store_reextract_non_empty_replaces_previous_non_empty_result_sets0_0B9_
FN:289,_RNCNvNtNtNtCs84fopnVJSSS_20entropia_desktop_lib3nlp7triples5testss_76extract_and_store_reextract_non_empty_replaces_previous_non_empty_result_sets1_0B9_
FN:270,_RNCNvNtNtNtCs84fopnVJSSS_20entropia_desktop_lib3nlp7triples5testss_76extract_and_store_reextract_non_empty_replaces_previous_non_empty_result_sets_0B9_
FN:125,_RNvNtNtNtCs84fopnVJSSS_20entropia_desktop_lib3nlp7triples5tests13setup_test_db
FN:175,_RNvNtNtNtCs84fopnVJSSS_20entropia_desktop_lib3nlp7triples5testss_44extract_triples_returns_empty_for_empty_text
FN:181,_RNvNtNtNtCs84fopnVJSSS_20entropia_desktop_lib3nlp7triples5testss_52extract_triples_returns_empty_when_no_patterns_match
FN:163,_RNvNtNtNtCs84fopnVJSSS_20entropia_desktop_lib3nlp7triples5testss_56extract_triples_returns_matches_for_rule_based_sentences
FN:188,_RNvNtNtNtCs84fopnVJSSS_20entropia_desktop_lib3nlp7triples5testss_72extract_and_store_returns_ok_and_keeps_item_without_extracted_text_empty
FN:218,_RNvNtNtNtCs84fopnVJSSS_20entropia_desktop_lib3nlp7triples5testss_76extract_and_store_reextract_non_empty_replaces_previous_non_empty_result_set
FN:21,_RNCNvNtNtCs33ezxKbzRES_20entropia_desktop_lib3nlp7triples15extract_triples0B7_
FN:57,_RNCNvNtNtCs33ezxKbzRES_20entropia_desktop_lib3nlp7triples17extract_and_store0B7_
FN:73,_RNCNvNtNtCs33ezxKbzRES_20entropia_desktop_lib3nlp7triples17extract_and_stores0_0B7_
FN:90,_RNCNvNtNtCs33ezxKbzRES_20entropia_desktop_lib3nlp7triples17extract_and_stores1_0B7_
FN:65,_RNCNvNtNtCs33ezxKbzRES_20entropia_desktop_lib3nlp7triples17extract_and_stores_0B7_
FN:12,_RNCNvNtNtCs33ezxKbzRES_20entropia_desktop_lib3nlp7triples9TRIPLE_RE0B7_
FN:112,_RNvNtNtCs33ezxKbzRES_20entropia_desktop_lib3nlp7triples10now_millis
FN:19,_RNvNtNtCs33ezxKbzRES_20entropia_desktop_lib3nlp7triples15extract_triples
FN:45,_RNvNtNtCs33ezxKbzRES_20entropia_desktop_lib3nlp7triples17extract_and_store
FN:96,_RNvNtNtCs33ezxKbzRES_20entropia_desktop_lib3nlp7triples7uuid_v4
FNDA:12,_RNCNvNtNtCs84fopnVJSSS_20entropia_desktop_lib3nlp7triples15extract_triples0B7_
FNDA:3,_RNCNvNtNtCs84fopnVJSSS_20entropia_desktop_lib3nlp7triples17extract_and_store0B7_
FNDA:0,_RNCNvNtNtCs84fopnVJSSS_20entropia_desktop_lib3nlp7triples17extract_and_stores0_0B7_
FNDA:0,_RNCNvNtNtCs84fopnVJSSS_20entropia_desktop_lib3nlp7triples17extract_and_stores1_0B7_
FNDA:0,_RNCNvNtNtCs84fopnVJSSS_20entropia_desktop_lib3nlp7triples17extract_and_stores_0B7_
FNDA:1,_RNCNvNtNtCs84fopnVJSSS_20entropia_desktop_lib3nlp7triples9TRIPLE_RE0B7_
FNDA:4,_RNvNtNtCs84fopnVJSSS_20entropia_desktop_lib3nlp7triples10now_millis
FNDA:6,_RNvNtNtCs84fopnVJSSS_20entropia_desktop_lib3nlp7triples15extract_triples
FNDA:4,_RNvNtNtCs84fopnVJSSS_20entropia_desktop_lib3nlp7triples17extract_and_store
FNDA:4,_RNvNtNtCs84fopnVJSSS_20entropia_desktop_lib3nlp7triples7uuid_v4
FNDA:1,_RNCNvNtNtNtCs84fopnVJSSS_20entropia_desktop_lib3nlp7triples5testss_72extract_and_store_returns_ok_and_keeps_item_without_extracted_text_empty0B9_
FNDA:1,_RNCNvNtNtNtCs84fopnVJSSS_20entropia_desktop_lib3nlp7triples5testss_76extract_and_store_reextract_non_empty_replaces_previous_non_empty_result_set0B9_
FNDA:1,_RNCNvNtNtNtCs84fopnVJSSS_20entropia_desktop_lib3nlp7triples5testss_76extract_and_store_reextract_non_empty_replaces_previous_non_empty_result_sets0_0B9_
FNDA:2,_RNCNvNtNtNtCs84fopnVJSSS_20entropia_desktop_lib3nlp7triples5testss_76extract_and_store_reextract_non_empty_replaces_previous_non_empty_result_sets1_0B9_
FNDA:1,_RNCNvNtNtNtCs84fopnVJSSS_20entropia_desktop_lib3nlp7triples5testss_76extract_and_store_reextract_non_empty_replaces_previous_non_empty_result_sets_0B9_
FNDA:2,_RNvNtNtNtCs84fopnVJSSS_20entropia_desktop_lib3nlp7triples5tests13setup_test_db
FNDA:1,_RNvNtNtNtCs84fopnVJSSS_20entropia_desktop_lib3nlp7triples5testss_44extract_triples_returns_empty_for_empty_text
FNDA:1,_RNvNtNtNtCs84fopnVJSSS_20entropia_desktop_lib3nlp7triples5testss_52extract_triples_returns_empty_when_no_patterns_match
FNDA:1,_RNvNtNtNtCs84fopnVJSSS_20entropia_desktop_lib3nlp7triples5testss_56extract_triples_returns_matches_for_rule_based_sentences
FNDA:1,_RNvNtNtNtCs84fopnVJSSS_20entropia_desktop_lib3nlp7triples5testss_72extract_and_store_returns_ok_and_keeps_item_without_extracted_text_empty
FNDA:1,_RNvNtNtNtCs84fopnVJSSS_20entropia_desktop_lib3nlp7triples5testss_76extract_and_store_reextract_non_empty_replaces_previous_non_empty_result_set
FNDA:0,_RNCNvNtNtCs33ezxKbzRES_20entropia_desktop_lib3nlp7triples15extract_triples0B7_
FNDA:0,_RNCNvNtNtCs33ezxKbzRES_20entropia_desktop_lib3nlp7triples17extract_and_store0B7_
FNDA:0,_RNCNvNtNtCs33ezxKbzRES_20entropia_desktop_lib3nlp7triples17extract_and_stores0_0B7_
FNDA:0,_RNCNvNtNtCs33ezxKbzRES_20entropia_desktop_lib3nlp7triples17extract_and_stores1_0B7_
FNDA:0,_RNCNvNtNtCs33ezxKbzRES_20entropia_desktop_lib3nlp7triples17extract_and_stores_0B7_
FNDA:0,_RNCNvNtNtCs33ezxKbzRES_20entropia_desktop_lib3nlp7triples9TRIPLE_RE0B7_
FNDA:0,_RNvNtNtCs33ezxKbzRES_20entropia_desktop_lib3nlp7triples10now_millis
FNDA:0,_RNvNtNtCs33ezxKbzRES_20entropia_desktop_lib3nlp7triples15extract_triples
FNDA:0,_RNvNtNtCs33ezxKbzRES_20entropia_desktop_lib3nlp7triples17extract_and_store
FNDA:0,_RNvNtNtCs33ezxKbzRES_20entropia_desktop_lib3nlp7triples7uuid_v4
FNF:21
FNH:18
DA:12,1
DA:13,1
DA:14,1
DA:16,1
DA:17,1
DA:19,6
DA:20,6
DA:21,12
DA:22,12
DA:23,12
DA:24,5
DA:25,7
DA:27,7
DA:28,6
DA:29,6
DA:30,6
DA:32,6
DA:33,0
DA:34,6
DA:36,6
DA:37,6
DA:38,6
DA:39,6
DA:40,6
DA:41,12
DA:42,6
DA:43,6
DA:45,4
DA:46,4
DA:47,4
DA:48,4
DA:49,4
DA:50,4
DA:51,4
DA:52,4
DA:53,4
DA:54,4
DA:55,4
DA:56,4
DA:57,3
DA:59,4
DA:61,3
DA:62,3
DA:64,1
DA:65,1
DA:66,1
DA:70,3
DA:72,3
DA:73,3
DA:75,7
DA:76,4
DA:77,4
DA:78,4
DA:79,4
DA:80,4
DA:81,4
DA:82,4
DA:87,4
DA:90,4
DA:93,3
DA:94,4
DA:96,4
DA:98,4
DA:99,4
DA:100,4
DA:101,4
DA:102,4
DA:103,4
DA:104,4
DA:105,4
DA:106,4
DA:107,4
DA:110,4
DA:112,4
DA:114,4
DA:115,4
DA:116,4
DA:117,4
DA:118,4
DA:125,2
DA:126,2
DA:128,2
DA:129,2
DA:130,2
DA:131,2
DA:132,2
DA:133,2
DA:134,2
DA:135,2
DA:136,2
DA:137,2
DA:138,2
DA:139,2
DA:140,2
DA:141,2
DA:142,2
DA:143,2
DA:144,2
DA:145,2
DA:146,2
DA:147,2
DA:148,2
DA:149,2
DA:150,2
DA:151,2
DA:152,2
DA:153,2
DA:154,2
DA:155,2
DA:157,2
DA:159,2
DA:160,2
DA:163,1
DA:164,1
DA:166,1
DA:168,1
DA:169,1
DA:170,1
DA:171,1
DA:172,1
DA:175,1
DA:176,1
DA:177,1
DA:178,1
DA:181,1
DA:182,1
DA:183,1
DA:184,1
DA:185,1
DA:188,1
DA:189,1
DA:191,1
DA:192,1
DA:193,1
DA:195,1
DA:197,1
DA:198,1
DA:199,1
DA:201,1
DA:203,1
DA:204,1
DA:206,1
DA:207,1
DA:208,1
DA:209,1
DA:210,1
DA:212,1
DA:214,1
DA:215,1
DA:218,1
DA:219,1
DA:221,1
DA:222,1
DA:223,1
DA:225,1
DA:227,1
DA:228,1
DA:229,1
DA:238,1
DA:240,1
DA:242,1
DA:243,1
DA:244,1
DA:245,1
DA:246,1
DA:248,1
DA:249,1
DA:251,1
DA:252,1
DA:253,1
DA:262,1
DA:264,1
DA:266,1
DA:267,1
DA:268,1
DA:269,1
DA:270,1
DA:272,1
DA:273,1
DA:275,1
DA:276,1
DA:277,1
DA:278,1
DA:279,1
DA:281,1
DA:282,1
DA:284,1
DA:285,1
DA:286,1
DA:287,1
DA:289,2
DA:290,1
DA:291,1
DA:292,1
DA:295,1
DA:297,1
DA:298,1
DA:299,1
DA:302,1
BRF:0
BRH:0
LF:204
LH:200
end_of_record
SF:D:\a\EntropIA\EntropIA\apps\desktop\src-tauri\src\ocr\commands.rs
FN:16,_RNCNCNCNvCs84fopnVJSSS_20entropia_desktop_lib3runs_0s4_00B7_
FN:22,_RNCNvNtNtCs84fopnVJSSS_20entropia_desktop_lib3ocr8commands12extract_text0B7_
FN:17,_RNvNtNtCs84fopnVJSSS_20entropia_desktop_lib3ocr8commands12extract_text
FN:16,_RNCNCNCNvCs33ezxKbzRES_20entropia_desktop_lib3runs_0s4_00B7_
FN:22,_RNCNvNtNtCs33ezxKbzRES_20entropia_desktop_lib3ocr8commands12extract_text0B7_
FN:17,_RNvNtNtCs33ezxKbzRES_20entropia_desktop_lib3ocr8commands12extract_text
FNDA:0,_RNCNCNCNvCs84fopnVJSSS_20entropia_desktop_lib3runs_0s4_00B7_
FNDA:0,_RNCNvNtNtCs84fopnVJSSS_20entropia_desktop_lib3ocr8commands12extract_text0B7_
FNDA:0,_RNvNtNtCs84fopnVJSSS_20entropia_desktop_lib3ocr8commands12extract_text
FNDA:0,_RNCNCNCNvCs33ezxKbzRES_20entropia_desktop_lib3runs_0s4_00B7_
FNDA:0,_RNCNvNtNtCs33ezxKbzRES_20entropia_desktop_lib3ocr8commands12extract_text0B7_
FNDA:0,_RNvNtNtCs33ezxKbzRES_20entropia_desktop_lib3ocr8commands12extract_text
FNF:3
FNH:0
DA:16,0
DA:17,0
DA:18,0
DA:19,0
DA:20,0
DA:21,0
DA:22,0
DA:23,0
DA:24,0
DA:25,0
DA:26,0
DA:27,0
DA:29,0
DA:30,0
DA:31,0
BRF:0
BRH:0
LF:16
LH:0
end_of_record
SF:D:\a\EntropIA\EntropIA\apps\desktop\src-tauri\src\ocr\engine.rs
FN:29,_RNCNvMNtNtCs84fopnVJSSS_20entropia_desktop_lib3ocr6engineNtB4_9OcrEngine11load_models0B8_
FN:41,_RNCNvMNtNtCs84fopnVJSSS_20entropia_desktop_lib3ocr6engineNtB4_9OcrEngine11load_modelss0_0B8_
FN:53,_RNCNvMNtNtCs84fopnVJSSS_20entropia_desktop_lib3ocr6engineNtB4_9OcrEngine11load_modelss1_0B8_
FN:35,_RNCNvMNtNtCs84fopnVJSSS_20entropia_desktop_lib3ocr6engineNtB4_9OcrEngine11load_modelss_0B8_
FN:71,_RNCNvMNtNtCs84fopnVJSSS_20entropia_desktop_lib3ocr6engineNtB4_9OcrEngine7run_ocr0B8_
FN:81,_RNCNvMNtNtCs84fopnVJSSS_20entropia_desktop_lib3ocr6engineNtB4_9OcrEngine7run_ocrs0_0B8_
FN:76,_RNCNvMNtNtCs84fopnVJSSS_20entropia_desktop_lib3ocr6engineNtB4_9OcrEngine7run_ocrs_0B8_
FN:25,_RNvMNtNtCs84fopnVJSSS_20entropia_desktop_lib3ocr6engineNtB2_9OcrEngine11load_models
FN:65,_RNvMNtNtCs84fopnVJSSS_20entropia_desktop_lib3ocr6engineNtB2_9OcrEngine7run_ocr
FN:29,_RNCNvMNtNtCs33ezxKbzRES_20entropia_desktop_lib3ocr6engineNtB4_9OcrEngine11load_models0B8_
FN:41,_RNCNvMNtNtCs33ezxKbzRES_20entropia_desktop_lib3ocr6engineNtB4_9OcrEngine11load_modelss0_0B8_
FN:53,_RNCNvMNtNtCs33ezxKbzRES_20entropia_desktop_lib3ocr6engineNtB4_9OcrEngine11load_modelss1_0B8_
FN:35,_RNCNvMNtNtCs33ezxKbzRES_20entropia_desktop_lib3ocr6engineNtB4_9OcrEngine11load_modelss_0B8_
FN:71,_RNCNvMNtNtCs33ezxKbzRES_20entropia_desktop_lib3ocr6engineNtB4_9OcrEngine7run_ocr0B8_
FN:81,_RNCNvMNtNtCs33ezxKbzRES_20entropia_desktop_lib3ocr6engineNtB4_9OcrEngine7run_ocrs0_0B8_
FN:76,_RNCNvMNtNtCs33ezxKbzRES_20entropia_desktop_lib3ocr6engineNtB4_9OcrEngine7run_ocrs_0B8_
FN:25,_RNvMNtNtCs33ezxKbzRES_20entropia_desktop_lib3ocr6engineNtB2_9OcrEngine11load_models
FN:65,_RNvMNtNtCs33ezxKbzRES_20entropia_desktop_lib3ocr6engineNtB2_9OcrEngine7run_ocr
FNDA:0,_RNCNvMNtNtCs84fopnVJSSS_20entropia_desktop_lib3ocr6engineNtB4_9OcrEngine11load_models0B8_
FNDA:0,_RNCNvMNtNtCs84fopnVJSSS_20entropia_desktop_lib3ocr6engineNtB4_9OcrEngine11load_modelss0_0B8_
FNDA:0,_RNCNvMNtNtCs84fopnVJSSS_20entropia_desktop_lib3ocr6engineNtB4_9OcrEngine11load_modelss1_0B8_
FNDA:0,_RNCNvMNtNtCs84fopnVJSSS_20entropia_desktop_lib3ocr6engineNtB4_9OcrEngine11load_modelss_0B8_
FNDA:0,_RNCNvMNtNtCs84fopnVJSSS_20entropia_desktop_lib3ocr6engineNtB4_9OcrEngine7run_ocr0B8_
FNDA:0,_RNCNvMNtNtCs84fopnVJSSS_20entropia_desktop_lib3ocr6engineNtB4_9OcrEngine7run_ocrs0_0B8_
FNDA:0,_RNCNvMNtNtCs84fopnVJSSS_20entropia_desktop_lib3ocr6engineNtB4_9OcrEngine7run_ocrs_0B8_
FNDA:0,_RNvMNtNtCs84fopnVJSSS_20entropia_desktop_lib3ocr6engineNtB2_9OcrEngine11load_models
FNDA:0,_RNvMNtNtCs84fopnVJSSS_20entropia_desktop_lib3ocr6engineNtB2_9OcrEngine7run_ocr
FNDA:0,_RNCNvMNtNtCs33ezxKbzRES_20entropia_desktop_lib3ocr6engineNtB4_9OcrEngine11load_models0B8_
FNDA:0,_RNCNvMNtNtCs33ezxKbzRES_20entropia_desktop_lib3ocr6engineNtB4_9OcrEngine11load_modelss0_0B8_
FNDA:0,_RNCNvMNtNtCs33ezxKbzRES_20entropia_desktop_lib3ocr6engineNtB4_9OcrEngine11load_modelss1_0B8_
FNDA:0,_RNCNvMNtNtCs33ezxKbzRES_20entropia_desktop_lib3ocr6engineNtB4_9OcrEngine11load_modelss_0B8_
FNDA:0,_RNCNvMNtNtCs33ezxKbzRES_20entropia_desktop_lib3ocr6engineNtB4_9OcrEngine7run_ocr0B8_
FNDA:0,_RNCNvMNtNtCs33ezxKbzRES_20entropia_desktop_lib3ocr6engineNtB4_9OcrEngine7run_ocrs0_0B8_
FNDA:0,_RNCNvMNtNtCs33ezxKbzRES_20entropia_desktop_lib3ocr6engineNtB4_9OcrEngine7run_ocrs_0B8_
FNDA:0,_RNvMNtNtCs33ezxKbzRES_20entropia_desktop_lib3ocr6engineNtB2_9OcrEngine11load_models
FNDA:0,_RNvMNtNtCs33ezxKbzRES_20entropia_desktop_lib3ocr6engineNtB2_9OcrEngine7run_ocr
FNF:9
FNH:0
DA:25,0
DA:26,0
DA:27,0
DA:28,0
DA:29,0
DA:31,0
DA:32,0
DA:33,0
DA:35,0
DA:36,0
DA:37,0
DA:38,0
DA:40,0
DA:41,0
DA:42,0
DA:43,0
DA:44,0
DA:46,0
DA:48,0
DA:49,0
DA:50,0
DA:51,0
DA:52,0
DA:53,0
DA:55,0
DA:56,0
DA:65,0
DA:67,0
DA:68,0
DA:70,0
DA:71,0
DA:73,0
DA:74,0
DA:75,0
DA:76,0
DA:78,0
DA:79,0
DA:80,0
DA:81,0
DA:83,0
DA:84,0
BRF:0
BRH:0
LF:50
LH:0
end_of_record
SF:D:\a\EntropIA\EntropIA\apps\desktop\src-tauri\src\ocr\mod.rs
FN:201,_RNCNCNCNvNtCs84fopnVJSSS_20entropia_desktop_lib3ocr13process_image000B9_
FN:80,_RNCNCNvMNtCs84fopnVJSSS_20entropia_desktop_lib3ocrNtB6_8OcrQueue12start_worker00B8_
FN:82,_RNCNCNvMNtCs84fopnVJSSS_20entropia_desktop_lib3ocrNtB6_8OcrQueue12start_worker0s_0B8_
FN:149,_RNCNCNvNtCs84fopnVJSSS_20entropia_desktop_lib3ocr11process_job00B7_
FN:168,_RNCNCNvNtCs84fopnVJSSS_20entropia_desktop_lib3ocr11process_pdf00B7_
FN:170,_RNCNCNvNtCs84fopnVJSSS_20entropia_desktop_lib3ocr11process_pdf0s_0B7_
FN:199,_RNCNCNvNtCs84fopnVJSSS_20entropia_desktop_lib3ocr13process_image00B7_
FN:229,_RNCNCNvNtCs84fopnVJSSS_20entropia_desktop_lib3ocr13process_image0s0_0B7_
FN:205,_RNCNCNvNtCs84fopnVJSSS_20entropia_desktop_lib3ocr13process_image0s_0B7_
FN:76,_RNCNvMNtCs84fopnVJSSS_20entropia_desktop_lib3ocrNtB4_8OcrQueue12start_worker0B6_
FN:66,_RNCNvMNtCs84fopnVJSSS_20entropia_desktop_lib3ocrNtB4_8OcrQueue6submit0B6_
FN:141,_RNCNvNtCs84fopnVJSSS_20entropia_desktop_lib3ocr11process_job0B5_
FN:163,_RNCNvNtCs84fopnVJSSS_20entropia_desktop_lib3ocr11process_pdf0B5_
FN:194,_RNCNvNtCs84fopnVJSSS_20entropia_desktop_lib3ocr13process_image0B5_
FN:75,_RNvMNtCs84fopnVJSSS_20entropia_desktop_lib3ocrNtB2_8OcrQueue12start_worker
FN:55,_RNvMNtCs84fopnVJSSS_20entropia_desktop_lib3ocrNtB2_8OcrQueue3new
FN:63,_RNvMNtCs84fopnVJSSS_20entropia_desktop_lib3ocrNtB2_8OcrQueue6submit
FN:137,_RNvNtCs84fopnVJSSS_20entropia_desktop_lib3ocr11process_job
FN:158,_RNvNtCs84fopnVJSSS_20entropia_desktop_lib3ocr11process_pdf
FN:236,_RNvNtCs84fopnVJSSS_20entropia_desktop_lib3ocr13emit_progress
FN:189,_RNvNtCs84fopnVJSSS_20entropia_desktop_lib3ocr13process_image
FN:201,_RNCNCNCNvNtCs33ezxKbzRES_20entropia_desktop_lib3ocr13process_image000B9_
FN:80,_RNCNCNvMNtCs33ezxKbzRES_20entropia_desktop_lib3ocrNtB6_8OcrQueue12start_worker00B8_
FN:82,_RNCNCNvMNtCs33ezxKbzRES_20entropia_desktop_lib3ocrNtB6_8OcrQueue12start_worker0s_0B8_
FN:149,_RNCNCNvNtCs33ezxKbzRES_20entropia_desktop_lib3ocr11process_job00B7_
FN:168,_RNCNCNvNtCs33ezxKbzRES_20entropia_desktop_lib3ocr11process_pdf00B7_
FN:170,_RNCNCNvNtCs33ezxKbzRES_20entropia_desktop_lib3ocr11process_pdf0s_0B7_
FN:199,_RNCNCNvNtCs33ezxKbzRES_20entropia_desktop_lib3ocr13process_image00B7_
FN:229,_RNCNCNvNtCs33ezxKbzRES_20entropia_desktop_lib3ocr13process_image0s0_0B7_
FN:205,_RNCNCNvNtCs33ezxKbzRES_20entropia_desktop_lib3ocr13process_image0s_0B7_
FN:76,_RNCNvMNtCs33ezxKbzRES_20entropia_desktop_lib3ocrNtB4_8OcrQueue12start_worker0B6_
FN:66,_RNCNvMNtCs33ezxKbzRES_20entropia_desktop_lib3ocrNtB4_8OcrQueue6submit0B6_
FN:141,_RNCNvNtCs33ezxKbzRES_20entropia_desktop_lib3ocr11process_job0B5_
FN:163,_RNCNvNtCs33ezxKbzRES_20entropia_desktop_lib3ocr11process_pdf0B5_
FN:194,_RNCNvNtCs33ezxKbzRES_20entropia_desktop_lib3ocr13process_image0B5_
FN:75,_RNvMNtCs33ezxKbzRES_20entropia_desktop_lib3ocrNtB2_8OcrQueue12start_worker
FN:55,_RNvMNtCs33ezxKbzRES_20entropia_desktop_lib3ocrNtB2_8OcrQueue3new
FN:63,_RNvMNtCs33ezxKbzRES_20entropia_desktop_lib3ocrNtB2_8OcrQueue6submit
FN:137,_RNvNtCs33ezxKbzRES_20entropia_desktop_lib3ocr11process_job
FN:158,_RNvNtCs33ezxKbzRES_20entropia_desktop_lib3ocr11process_pdf
FN:236,_RNvNtCs33ezxKbzRES_20entropia_desktop_lib3ocr13emit_progress
FN:189,_RNvNtCs33ezxKbzRES_20entropia_desktop_lib3ocr13process_image
FNDA:0,_RNCNCNCNvNtCs84fopnVJSSS_20entropia_desktop_lib3ocr13process_image000B9_
FNDA:0,_RNCNCNvMNtCs84fopnVJSSS_20entropia_desktop_lib3ocrNtB6_8OcrQueue12start_worker00B8_
FNDA:0,_RNCNCNvMNtCs84fopnVJSSS_20entropia_desktop_lib3ocrNtB6_8OcrQueue12start_worker0s_0B8_
FNDA:0,_RNCNCNvNtCs84fopnVJSSS_20entropia_desktop_lib3ocr11process_job00B7_
FNDA:0,_RNCNCNvNtCs84fopnVJSSS_20entropia_desktop_lib3ocr11process_pdf00B7_
FNDA:0,_RNCNCNvNtCs84fopnVJSSS_20entropia_desktop_lib3ocr11process_pdf0s_0B7_
FNDA:0,_RNCNCNvNtCs84fopnVJSSS_20entropia_desktop_lib3ocr13process_image00B7_
FNDA:0,_RNCNCNvNtCs84fopnVJSSS_20entropia_desktop_lib3ocr13process_image0s0_0B7_
FNDA:0,_RNCNCNvNtCs84fopnVJSSS_20entropia_desktop_lib3ocr13process_image0s_0B7_
FNDA:0,_RNCNvMNtCs84fopnVJSSS_20entropia_desktop_lib3ocrNtB4_8OcrQueue12start_worker0B6_
FNDA:0,_RNCNvMNtCs84fopnVJSSS_20entropia_desktop_lib3ocrNtB4_8OcrQueue6submit0B6_
FNDA:0,_RNCNvNtCs84fopnVJSSS_20entropia_desktop_lib3ocr11process_job0B5_
FNDA:0,_RNCNvNtCs84fopnVJSSS_20entropia_desktop_lib3ocr11process_pdf0B5_
FNDA:0,_RNCNvNtCs84fopnVJSSS_20entropia_desktop_lib3ocr13process_image0B5_
FNDA:0,_RNvMNtCs84fopnVJSSS_20entropia_desktop_lib3ocrNtB2_8OcrQueue12start_worker
FNDA:0,_RNvMNtCs84fopnVJSSS_20entropia_desktop_lib3ocrNtB2_8OcrQueue3new
FNDA:0,_RNvMNtCs84fopnVJSSS_20entropia_desktop_lib3ocrNtB2_8OcrQueue6submit
FNDA:0,_RNvNtCs84fopnVJSSS_20entropia_desktop_lib3ocr11process_job
FNDA:0,_RNvNtCs84fopnVJSSS_20entropia_desktop_lib3ocr11process_pdf
FNDA:0,_RNvNtCs84fopnVJSSS_20entropia_desktop_lib3ocr13emit_progress
FNDA:0,_RNvNtCs84fopnVJSSS_20entropia_desktop_lib3ocr13process_image
FNDA:0,_RNCNCNCNvNtCs33ezxKbzRES_20entropia_desktop_lib3ocr13process_image000B9_
FNDA:0,_RNCNCNvMNtCs33ezxKbzRES_20entropia_desktop_lib3ocrNtB6_8OcrQueue12start_worker00B8_
FNDA:0,_RNCNCNvMNtCs33ezxKbzRES_20entropia_desktop_lib3ocrNtB6_8OcrQueue12start_worker0s_0B8_
FNDA:0,_RNCNCNvNtCs33ezxKbzRES_20entropia_desktop_lib3ocr11process_job00B7_
FNDA:0,_RNCNCNvNtCs33ezxKbzRES_20entropia_desktop_lib3ocr11process_pdf00B7_
FNDA:0,_RNCNCNvNtCs33ezxKbzRES_20entropia_desktop_lib3ocr11process_pdf0s_0B7_
FNDA:0,_RNCNCNvNtCs33ezxKbzRES_20entropia_desktop_lib3ocr13process_image00B7_
FNDA:0,_RNCNCNvNtCs33ezxKbzRES_20entropia_desktop_lib3ocr13process_image0s0_0B7_
FNDA:0,_RNCNCNvNtCs33ezxKbzRES_20entropia_desktop_lib3ocr13process_image0s_0B7_
FNDA:0,_RNCNvMNtCs33ezxKbzRES_20entropia_desktop_lib3ocrNtB4_8OcrQueue12start_worker0B6_
FNDA:0,_RNCNvMNtCs33ezxKbzRES_20entropia_desktop_lib3ocrNtB4_8OcrQueue6submit0B6_
FNDA:0,_RNCNvNtCs33ezxKbzRES_20entropia_desktop_lib3ocr11process_job0B5_
FNDA:0,_RNCNvNtCs33ezxKbzRES_20entropia_desktop_lib3ocr11process_pdf0B5_
FNDA:0,_RNCNvNtCs33ezxKbzRES_20entropia_desktop_lib3ocr13process_image0B5_
FNDA:0,_RNvMNtCs33ezxKbzRES_20entropia_desktop_lib3ocrNtB2_8OcrQueue12start_worker
FNDA:0,_RNvMNtCs33ezxKbzRES_20entropia_desktop_lib3ocrNtB2_8OcrQueue3new
FNDA:0,_RNvMNtCs33ezxKbzRES_20entropia_desktop_lib3ocrNtB2_8OcrQueue6submit
FNDA:0,_RNvNtCs33ezxKbzRES_20entropia_desktop_lib3ocr11process_job
FNDA:0,_RNvNtCs33ezxKbzRES_20entropia_desktop_lib3ocr11process_pdf
FNDA:0,_RNvNtCs33ezxKbzRES_20entropia_desktop_lib3ocr13emit_progress
FNDA:0,_RNvNtCs33ezxKbzRES_20entropia_desktop_lib3ocr13process_image
FNF:21
FNH:0
DA:55,0
DA:58,0
DA:59,0
DA:60,0
DA:63,0
DA:64,0
DA:65,0
DA:66,0
DA:67,0
DA:75,0
DA:76,0
DA:78,0
DA:79,0
DA:80,0
DA:81,0
DA:82,0
DA:83,0
DA:86,0
DA:87,0
DA:88,0
DA:90,0
DA:91,0
DA:92,0
DA:93,0
DA:94,0
DA:95,0
DA:96,0
DA:97,0
DA:98,0
DA:99,0
DA:104,0
DA:105,0
DA:106,0
DA:108,0
DA:109,0
DA:110,0
DA:111,0
DA:112,0
DA:113,0
DA:114,0
DA:115,0
DA:116,0
DA:117,0
DA:118,0
DA:119,0
DA:120,0
DA:121,0
DA:122,0
DA:123,0
DA:124,0
DA:125,0
DA:126,0
DA:127,0
DA:130,0
DA:131,0
DA:137,0
DA:138,0
DA:139,0
DA:140,0
DA:141,0
DA:142,0
DA:145,0
DA:147,0
DA:148,0
DA:149,0
DA:151,0
DA:152,0
DA:153,0
DA:155,0
DA:158,0
DA:159,0
DA:160,0
DA:161,0
DA:162,0
DA:163,0
DA:165,0
DA:167,0
DA:168,0
DA:169,0
DA:170,0
DA:172,0
DA:173,0
DA:174,0
DA:175,0
DA:183,0
DA:186,0
DA:189,0
DA:190,0
DA:191,0
DA:192,0
DA:193,0
DA:194,0
DA:196,0
DA:198,0
DA:199,0
DA:200,0
DA:201,0
DA:202,0
DA:203,0
DA:204,0
DA:205,0
DA:208,0
DA:227,0
DA:228,0
DA:229,0
DA:231,0
DA:232,0
DA:233,0
DA:236,0
DA:237,0
DA:238,0
DA:239,0
DA:240,0
DA:241,0
DA:242,0
DA:243,0
DA:244,0
DA:245,0
BRF:0
BRH:0
LF:132
LH:0
end_of_record
SF:D:\a\EntropIA\EntropIA\apps\desktop\src-tauri\src\ocr\pdf.rs
FN:34,_RNvNtNtNtCs84fopnVJSSS_20entropia_desktop_lib3ocr3pdf5testss_22normal_text_is_quality
FN:22,_RNvNtNtNtCs84fopnVJSSS_20entropia_desktop_lib3ocr3pdf5testss_25empty_text_is_not_quality
FN:27,_RNvNtNtNtCs84fopnVJSSS_20entropia_desktop_lib3ocr3pdf5testss_33short_garbled_text_is_not_quality
FN:13,_RNCNvNtNtCs84fopnVJSSS_20entropia_desktop_lib3ocr3pdf15is_quality_text0B7_
FN:12,_RNvNtNtCs84fopnVJSSS_20entropia_desktop_lib3ocr3pdf15is_quality_text
FN:7,_RNCNvNtNtCs84fopnVJSSS_20entropia_desktop_lib3ocr3pdf16extract_pdf_text0B7_
FN:5,_RNvNtNtCs84fopnVJSSS_20entropia_desktop_lib3ocr3pdf16extract_pdf_text
FN:13,_RNCNvNtNtCs33ezxKbzRES_20entropia_desktop_lib3ocr3pdf15is_quality_text0B7_
FN:7,_RNCNvNtNtCs33ezxKbzRES_20entropia_desktop_lib3ocr3pdf16extract_pdf_text0B7_
FN:12,_RNvNtNtCs33ezxKbzRES_20entropia_desktop_lib3ocr3pdf15is_quality_text
FN:5,_RNvNtNtCs33ezxKbzRES_20entropia_desktop_lib3ocr3pdf16extract_pdf_text
FNDA:1,_RNvNtNtNtCs84fopnVJSSS_20entropia_desktop_lib3ocr3pdf5testss_22normal_text_is_quality
FNDA:1,_RNvNtNtNtCs84fopnVJSSS_20entropia_desktop_lib3ocr3pdf5testss_25empty_text_is_not_quality
FNDA:1,_RNvNtNtNtCs84fopnVJSSS_20entropia_desktop_lib3ocr3pdf5testss_33short_garbled_text_is_not_quality
FNDA:184,_RNCNvNtNtCs84fopnVJSSS_20entropia_desktop_lib3ocr3pdf15is_quality_text0B7_
FNDA:3,_RNvNtNtCs84fopnVJSSS_20entropia_desktop_lib3ocr3pdf15is_quality_text
FNDA:0,_RNCNvNtNtCs84fopnVJSSS_20entropia_desktop_lib3ocr3pdf16extract_pdf_text0B7_
FNDA:0,_RNvNtNtCs84fopnVJSSS_20entropia_desktop_lib3ocr3pdf16extract_pdf_text
FNDA:0,_RNCNvNtNtCs33ezxKbzRES_20entropia_desktop_lib3ocr3pdf15is_quality_text0B7_
FNDA:0,_RNCNvNtNtCs33ezxKbzRES_20entropia_desktop_lib3ocr3pdf16extract_pdf_text0B7_
FNDA:0,_RNvNtNtCs33ezxKbzRES_20entropia_desktop_lib3ocr3pdf15is_quality_text
FNDA:0,_RNvNtNtCs33ezxKbzRES_20entropia_desktop_lib3ocr3pdf16extract_pdf_text
FNF:7
FNH:5
DA:5,0
DA:6,0
DA:7,0
DA:8,0
DA:12,3
DA:13,184
DA:14,3
DA:15,3
DA:22,1
DA:23,1
DA:24,1
DA:27,1
DA:29,1
DA:30,1
DA:31,1
DA:34,1
DA:35,1
DA:36,1
DA:37,1
BRF:0
BRH:0
LF:21
LH:16
end_of_record
SF:D:\a\EntropIA\EntropIA\apps\desktop\src-tauri\src\ocr\preprocessor.rs
FN:15,_RNvNtNtCs84fopnVJSSS_20entropia_desktop_lib3ocr12preprocessor16preprocess_image
FN:28,_RNCNvNtNtNtCs84fopnVJSSS_20entropia_desktop_lib3ocr12preprocessor5testss_39preprocessed_image_preserves_dimensions0B9_
FN:26,_RNvNtNtNtCs84fopnVJSSS_20entropia_desktop_lib3ocr12preprocessor5testss_39preprocessed_image_preserves_dimensions
FN:15,_RNvNtNtCs33ezxKbzRES_20entropia_desktop_lib3ocr12preprocessor16preprocess_image
FNDA:1,_RNvNtNtCs84fopnVJSSS_20entropia_desktop_lib3ocr12preprocessor16preprocess_image
FNDA:10000,_RNCNvNtNtNtCs84fopnVJSSS_20entropia_desktop_lib3ocr12preprocessor5testss_39preprocessed_image_preserves_dimensions0B9_
FNDA:1,_RNvNtNtNtCs84fopnVJSSS_20entropia_desktop_lib3ocr12preprocessor5testss_39preprocessed_image_preserves_dimensions
FNDA:0,_RNvNtNtCs33ezxKbzRES_20entropia_desktop_lib3ocr12preprocessor16preprocess_image
FNF:3
FNH:3
DA:15,1
DA:16,1
DA:17,1
DA:18,1
DA:26,1
DA:28,10000
DA:29,1
DA:31,1
DA:33,1
DA:34,1
DA:35,1
BRF:0
BRH:0
LF:12
LH:12
end_of_record